EXPORTS 
??0ArmaturePopulate@Assimp@@QEAA@AEBV01@@Z 
??0ArmaturePopulate@Assimp@@QEAA@XZ 
??0BaseImporter@Assimp@@QEAA@AEBV01@@Z 
??0BaseImporter@Assimp@@QEAA@XZ 
??0BaseProcess@Assimp@@QEAA@AEBV01@@Z 
??0BaseProcess@Assimp@@QEAA@XZ 
??0BatchLoader@Assimp@@QEAA@PEAVIOSystem@1@_N@Z 
??0CDT@p2t@@QEAA@AEBV?$vector@PEAUPoint@p2t@@V?$allocator@PEAUPoint@p2t@@@std@@@std@@@Z 
??0CalcTangentsProcess@Assimp@@QEAA@AEBV01@@Z 
??0CalcTangentsProcess@Assimp@@QEAA@XZ 
??0CommentRemover@Assimp@@AEAA@XZ 
??0Context@ODDLParser@@QEAA@XZ 
??0DDLNode@ODDLParser@@AEAA@AEBV?$basic_string@DU?$char_traits@D@std@@V?$allocator@D@2@@std@@0_KPEAV01@@Z 
??0DataArrayList@ODDLParser@@QEAA@XZ 
??0DeadlyErrorBase@@IEAA@V?$basic_formatter@DU?$char_traits@D@std@@V?$allocator@D@2@@Formatter@Assimp@@@Z 
??0DeadlyErrorBase@@QEAA@$$QEAV0@@Z 
??0DeadlyErrorBase@@QEAA@AEBV0@@Z 
??0DeadlyExportError@@QEAA@$$QEAV0@@Z 
??0DeadlyExportError@@QEAA@AEBV0@@Z 
??0DeadlyImportError@@QEAA@$$QEAV0@@Z 
??0DeadlyImportError@@QEAA@AEBV0@@Z 
??0DeadlyImportError@@QEAA@PEBD@Z 
??0DefaultIOStream@Assimp@@IEAA@PEAU_iobuf@@AEBV?$basic_string@DU?$char_traits@D@std@@V?$allocator@D@2@@std@@@Z 
??0DefaultIOStream@Assimp@@IEAA@XZ 
??0DefaultIOStream@Assimp@@QEAA@AEBV01@@Z 
??0DefaultIOSystem@Assimp@@QEAA@$$QEAV01@@Z 
??0DefaultIOSystem@Assimp@@QEAA@AEBV01@@Z 
??0DefaultIOSystem@Assimp@@QEAA@XZ 
??0DefaultLogger@Assimp@@AEAA@W4LogSeverity@Logger@1@@Z 
??0DefaultLogger@Assimp@@QEAA@AEBV01@@Z 
??0DropFaceNormalsProcess@Assimp@@QEAA@AEBV01@@Z 
??0DropFaceNormalsProcess@Assimp@@QEAA@XZ 
??0Edge@p2t@@QEAA@AEAUPoint@1@0@Z 
??0EmbedTexturesProcess@Assimp@@QEAA@AEBV01@@Z 
??0EmbedTexturesProcess@Assimp@@QEAA@XZ 
??0ExportProperties@Assimp@@QEAA@AEBV01@@Z 
??0ExportProperties@Assimp@@QEAA@XZ 
??0Exporter@Assimp@@QEAA@XZ 
??0FindDegeneratesProcess@Assimp@@QEAA@AEBV01@@Z 
??0FindDegeneratesProcess@Assimp@@QEAA@XZ 
??0FindInvalidDataProcess@Assimp@@QEAA@AEBV01@@Z 
??0FindInvalidDataProcess@Assimp@@QEAA@XZ 
??0GenBoundingBoxesProcess@Assimp@@QEAA@AEBV01@@Z 
??0GenBoundingBoxesProcess@Assimp@@QEAA@XZ 
??0GenFaceNormalsProcess@Assimp@@QEAA@AEBV01@@Z 
??0GenFaceNormalsProcess@Assimp@@QEAA@XZ 
??0GenVertexNormalsProcess@Assimp@@QEAA@AEBV01@@Z 
??0GenVertexNormalsProcess@Assimp@@QEAA@XZ 
??0IOStream@Assimp@@IEAA@XZ 
??0IOStream@Assimp@@QEAA@AEBV01@@Z 
??0IOStreamBase@ODDLParser@@QEAA@AEBV01@@Z 
??0IOStreamBase@ODDLParser@@QEAA@PEAVStreamFormatterBase@1@@Z 
??0IOSystem@Assimp@@QEAA@AEBV01@@Z 
??0IOSystem@Assimp@@QEAA@XZ 
??0Importer@Assimp@@QEAA@XZ 
??0Iterator@Value@ODDLParser@@QEAA@AEBV012@@Z 
??0Iterator@Value@ODDLParser@@QEAA@PEAV12@@Z 
??0Iterator@Value@ODDLParser@@QEAA@XZ 
??0JoinVerticesProcess@Assimp@@QEAA@AEBV01@@Z 
??0JoinVerticesProcess@Assimp@@QEAA@XZ 
??0LimitBoneWeightsProcess@Assimp@@QEAA@AEBV01@@Z 
??0LimitBoneWeightsProcess@Assimp@@QEAA@XZ 
??0LogStream@Assimp@@IEAA@XZ 
??0LogStream@Assimp@@QEAA@AEBV01@@Z 
??0Logger@Assimp@@IEAA@W4LogSeverity@01@@Z 
??0Logger@Assimp@@IEAA@XZ 
??0Logger@Assimp@@QEAA@AEBV01@@Z 
??0MakeVerboseFormatProcess@Assimp@@QEAA@AEBV01@@Z 
??0MakeVerboseFormatProcess@Assimp@@QEAA@XZ 
??0Name@ODDLParser@@QEAA@AEBU01@@Z 
??0Name@ODDLParser@@QEAA@W4NameType@1@PEAUText@1@@Z 
??0NullLogger@Assimp@@QEAA@$$QEAV01@@Z 
??0NullLogger@Assimp@@QEAA@AEBV01@@Z 
??0NullLogger@Assimp@@QEAA@XZ 
??0ObjFileParser@Assimp@@QEAA@AEAV?$IOStreamBuffer@D@1@AEBV?$basic_string@DU?$char_traits@D@std@@V?$allocator@D@2@@std@@PEAVIOSystem@1@PEAVProgressHandler@1@1@Z 
??0ObjFileParser@Assimp@@QEAA@XZ 
??0OpenDDLExport@ODDLParser@@QEAA@PEAVIOStreamBase@1@@Z 
??0OpenDDLParser@ODDLParser@@QEAA@PEBD_K@Z 
??0OpenDDLParser@ODDLParser@@QEAA@XZ 
??0Point@p2t@@QEAA@$$QEAU01@@Z 
??0Point@p2t@@QEAA@AEBU01@@Z 
??0Point@p2t@@QEAA@NN@Z 
??0Point@p2t@@QEAA@XZ 
??0PretransformVertices@Assimp@@QEAA@AEBV01@@Z 
??0PretransformVertices@Assimp@@QEAA@XZ 
??0ProgressHandler@Assimp@@IEAA@XZ 
??0ProgressHandler@Assimp@@QEAA@AEBV01@@Z 
??0Property@ODDLParser@@QEAA@PEAUText@1@@Z 
??0Reference@ODDLParser@@QEAA@AEBU01@@Z 
??0Reference@ODDLParser@@QEAA@XZ 
??0Reference@ODDLParser@@QEAA@_KPEAPEAUName@1@@Z 
??0RemoveRedundantMatsProcess@Assimp@@QEAA@AEBV01@@Z 
??0RemoveRedundantMatsProcess@Assimp@@QEAA@XZ 
??0RemoveVCProcess@Assimp@@QEAA@AEBV01@@Z 
??0RemoveVCProcess@Assimp@@QEAA@XZ 
??0SGSpatialSort@Assimp@@QEAA@AEBV01@@Z 
??0SGSpatialSort@Assimp@@QEAA@XZ 
??0SIBImporter@Assimp@@QEAA@AEBV01@@Z 
??0SIBImporter@Assimp@@QEAA@XZ 
??0SMDImporter@Assimp@@QEAA@AEBV01@@Z 
??0SMDImporter@Assimp@@QEAA@XZ 
??0ScaleProcess@Assimp@@QEAA@AEBV01@@Z 
??0ScaleProcess@Assimp@@QEAA@XZ 
??0ScenePreprocessor@Assimp@@QEAA@PEAUaiScene@@@Z 
??0ScenePreprocessor@Assimp@@QEAA@XZ 
??0SkeletonMeshBuilder@Assimp@@QEAA@$$QEAV01@@Z 
??0SkeletonMeshBuilder@Assimp@@QEAA@AEBV01@@Z 
??0SkeletonMeshBuilder@Assimp@@QEAA@PEAUaiScene@@PEAUaiNode@@_N@Z 
??0SortByPTypeProcess@Assimp@@QEAA@AEBV01@@Z 
??0SortByPTypeProcess@Assimp@@QEAA@XZ 
??0SpatialSort@Assimp@@QEAA@AEBV01@@Z 
??0SpatialSort@Assimp@@QEAA@PEBV?$aiVector3t@M@@II@Z 
??0SpatialSort@Assimp@@QEAA@XZ 
??0SplitLargeMeshesProcess_Triangle@Assimp@@QEAA@AEBV01@@Z 
??0SplitLargeMeshesProcess_Triangle@Assimp@@QEAA@XZ 
??0SplitLargeMeshesProcess_Vertex@Assimp@@QEAA@AEBV01@@Z 
??0SplitLargeMeshesProcess_Vertex@Assimp@@QEAA@XZ 
??0StandardShapes@Assimp@@AEAA@XZ 
??0StreamFormatterBase@ODDLParser@@QEAA@AEBV01@@Z 
??0StreamFormatterBase@ODDLParser@@QEAA@XZ 
??0Subdivider@Assimp@@QEAA@AEBV01@@Z 
??0Subdivider@Assimp@@QEAA@XZ 
??0Text@ODDLParser@@QEAA@PEBD_K@Z 
??0Triangle@p2t@@QEAA@AEAUPoint@1@00@Z 
??0TriangulateProcess@Assimp@@QEAA@AEBV01@@Z 
??0TriangulateProcess@Assimp@@QEAA@XZ 
??0Value@ODDLParser@@QEAA@W4ValueType@01@@Z 
??0VertexTriangleAdjacency@Assimp@@QEAA@PEAUaiFace@@II_N@Z 
??0aiMaterial@@QEAA@XZ 
??0aiNode@@QEAA@AEBU0@@Z 
??0aiNode@@QEAA@AEBV?$basic_string@DU?$char_traits@D@std@@V?$allocator@D@2@@std@@@Z 
??0aiNode@@QEAA@XZ 
??0aiScene@@QEAA@AEBU0@@Z 
??0aiScene@@QEAA@XZ 
??0xml_attribute@pugi@@QEAA@PEAUxml_attribute_struct@1@@Z 
??0xml_attribute@pugi@@QEAA@XZ 
??0xml_attribute_iterator@pugi@@AEAA@PEAUxml_attribute_struct@1@PEAUxml_node_struct@1@@Z 
??0xml_attribute_iterator@pugi@@QEAA@AEBVxml_attribute@1@AEBVxml_node@1@@Z 
??0xml_attribute_iterator@pugi@@QEAA@XZ 
??0xml_document@pugi@@QEAA@$$QEAV01@@Z 
??0xml_document@pugi@@QEAA@XZ 
??0xml_named_node_iterator@pugi@@AEAA@PEAUxml_node_struct@1@0PEBD@Z 
??0xml_named_node_iterator@pugi@@QEAA@AEBVxml_node@1@PEBD@Z 
??0xml_named_node_iterator@pugi@@QEAA@XZ 
??0xml_node@pugi@@QEAA@PEAUxml_node_struct@1@@Z 
??0xml_node@pugi@@QEAA@XZ 
??0xml_node_iterator@pugi@@AEAA@PEAUxml_node_struct@1@0@Z 
??0xml_node_iterator@pugi@@QEAA@AEBVxml_node@1@@Z 
??0xml_node_iterator@pugi@@QEAA@XZ 
??0xml_parse_result@pugi@@QEAA@XZ 
??0xml_text@pugi@@AEAA@PEAUxml_node_struct@1@@Z 
??0xml_text@pugi@@QEAA@XZ 
??0xml_tree_walker@pugi@@QEAA@AEBV01@@Z 
??0xml_tree_walker@pugi@@QEAA@XZ 
??0xml_writer@pugi@@QEAA@AEBV01@@Z 
??0xml_writer@pugi@@QEAA@XZ 
??0xml_writer_file@pugi@@QEAA@$$QEAV01@@Z 
??0xml_writer_file@pugi@@QEAA@AEBV01@@Z 
??0xml_writer_file@pugi@@QEAA@PEAX@Z 
??0xml_writer_stream@pugi@@QEAA@$$QEAV01@@Z 
??0xml_writer_stream@pugi@@QEAA@AEAV?$basic_ostream@DU?$char_traits@D@std@@@std@@@Z 
??0xml_writer_stream@pugi@@QEAA@AEAV?$basic_ostream@_WU?$char_traits@_W@std@@@std@@@Z 
??0xml_writer_stream@pugi@@QEAA@AEBV01@@Z 
??0xpath_exception@pugi@@QEAA@$$QEAV01@@Z 
??0xpath_exception@pugi@@QEAA@AEBUxpath_parse_result@1@@Z 
??0xpath_exception@pugi@@QEAA@AEBV01@@Z 
??0xpath_node@pugi@@QEAA@AEBVxml_attribute@1@AEBVxml_node@1@@Z 
??0xpath_node@pugi@@QEAA@AEBVxml_node@1@@Z 
??0xpath_node@pugi@@QEAA@XZ 
??0xpath_node_set@pugi@@QEAA@$$QEAV01@@Z 
??0xpath_node_set@pugi@@QEAA@AEBV01@@Z 
??0xpath_node_set@pugi@@QEAA@PEBVxpath_node@1@0W4type_t@01@@Z 
??0xpath_node_set@pugi@@QEAA@XZ 
??0xpath_parse_result@pugi@@QEAA@XZ 
??0xpath_query@pugi@@QEAA@$$QEAV01@@Z 
??0xpath_query@pugi@@QEAA@PEBDPEAVxpath_variable_set@1@@Z 
??0xpath_query@pugi@@QEAA@XZ 
??0xpath_variable@pugi@@IEAA@W4xpath_value_type@1@@Z 
??0xpath_variable_set@pugi@@QEAA@$$QEAV01@@Z 
??0xpath_variable_set@pugi@@QEAA@AEBV01@@Z 
??0xpath_variable_set@pugi@@QEAA@XZ 
??1ArmaturePopulate@Assimp@@UEAA@XZ 
??1BaseImporter@Assimp@@UEAA@XZ 
??1BaseProcess@Assimp@@UEAA@XZ 
??1BatchLoader@Assimp@@QEAA@XZ 
??1CDT@p2t@@QEAA@XZ 
??1CalcTangentsProcess@Assimp@@UEAA@XZ 
??1Context@ODDLParser@@QEAA@XZ 
??1DDLNode@ODDLParser@@QEAA@XZ 
??1DataArrayList@ODDLParser@@QEAA@XZ 
??1DeadlyErrorBase@@UEAA@XZ 
??1DeadlyExportError@@UEAA@XZ 
??1DeadlyImportError@@UEAA@XZ 
??1DefaultIOStream@Assimp@@UEAA@XZ 
??1DefaultIOSystem@Assimp@@UEAA@XZ 
??1DefaultLogger@Assimp@@EEAA@XZ 
??1DropFaceNormalsProcess@Assimp@@UEAA@XZ 
??1EmbedTexturesProcess@Assimp@@UEAA@XZ 
??1ExportProperties@Assimp@@QEAA@XZ 
??1Exporter@Assimp@@QEAA@XZ 
??1FindDegeneratesProcess@Assimp@@UEAA@XZ 
??1FindInvalidDataProcess@Assimp@@UEAA@XZ 
??1GenBoundingBoxesProcess@Assimp@@UEAA@XZ 
??1GenFaceNormalsProcess@Assimp@@UEAA@XZ 
??1GenVertexNormalsProcess@Assimp@@UEAA@XZ 
??1IOStream@Assimp@@UEAA@XZ 
??1IOStreamBase@ODDLParser@@UEAA@XZ 
??1IOSystem@Assimp@@UEAA@XZ 
??1Importer@Assimp@@QEAA@XZ 
??1Iterator@Value@ODDLParser@@QEAA@XZ 
??1JoinVerticesProcess@Assimp@@UEAA@XZ 
??1LimitBoneWeightsProcess@Assimp@@UEAA@XZ 
??1LogStream@Assimp@@UEAA@XZ 
??1Logger@Assimp@@UEAA@XZ 
??1MakeVerboseFormatProcess@Assimp@@UEAA@XZ 
??1Name@ODDLParser@@QEAA@XZ 
??1NullLogger@Assimp@@UEAA@XZ 
??1ObjFileParser@Assimp@@QEAA@XZ 
??1OpenDDLExport@ODDLParser@@QEAA@XZ 
??1OpenDDLParser@ODDLParser@@QEAA@XZ 
??1Point@p2t@@QEAA@XZ 
??1PretransformVertices@Assimp@@UEAA@XZ 
??1ProgressHandler@Assimp@@UEAA@XZ 
??1Property@ODDLParser@@QEAA@XZ 
??1Reference@ODDLParser@@QEAA@XZ 
??1RemoveRedundantMatsProcess@Assimp@@UEAA@XZ 
??1RemoveVCProcess@Assimp@@UEAA@XZ 
??1SGSpatialSort@Assimp@@QEAA@XZ 
??1SIBImporter@Assimp@@UEAA@XZ 
??1SMDImporter@Assimp@@UEAA@XZ 
??1ScaleProcess@Assimp@@UEAA@XZ 
??1SkeletonMeshBuilder@Assimp@@QEAA@XZ 
??1SortByPTypeProcess@Assimp@@UEAA@XZ 
??1SpatialSort@Assimp@@QEAA@XZ 
??1SplitLargeMeshesProcess_Triangle@Assimp@@UEAA@XZ 
??1SplitLargeMeshesProcess_Vertex@Assimp@@UEAA@XZ 
??1StreamFormatterBase@ODDLParser@@UEAA@XZ 
??1Subdivider@Assimp@@UEAA@XZ 
??1Text@ODDLParser@@QEAA@XZ 
??1TriangulateProcess@Assimp@@UEAA@XZ 
??1Value@ODDLParser@@QEAA@XZ 
??1VertexTriangleAdjacency@Assimp@@QEAA@XZ 
??1aiMaterial@@QEAA@XZ 
??1aiNode@@QEAA@XZ 
??1aiScene@@QEAA@XZ 
??1xml_document@pugi@@QEAA@XZ 
??1xml_tree_walker@pugi@@UEAA@XZ 
??1xml_writer@pugi@@UEAA@XZ 
??1xml_writer_file@pugi@@UEAA@XZ 
??1xml_writer_stream@pugi@@UEAA@XZ 
??1xpath_exception@pugi@@UEAA@XZ 
??1xpath_node_set@pugi@@QEAA@XZ 
??1xpath_query@pugi@@QEAA@XZ 
??1xpath_variable_set@pugi@@QEAA@XZ 
??2AllocateFromAssimpHeap@Intern@Assimp@@SAPEAX_K@Z 
??2AllocateFromAssimpHeap@Intern@Assimp@@SAPEAX_KAEBUnothrow_t@std@@@Z 
??3AllocateFromAssimpHeap@Intern@Assimp@@SAXPEAX@Z 
??4AllocateFromAssimpHeap@Intern@Assimp@@QEAAAEAU012@$$QEAU012@@Z 
??4AllocateFromAssimpHeap@Intern@Assimp@@QEAAAEAU012@AEBU012@@Z 
??4ArmaturePopulate@Assimp@@QEAAAEAV01@AEBV01@@Z 
??4BaseImporter@Assimp@@QEAAAEAV01@AEBV01@@Z 
??4BaseProcess@Assimp@@QEAAAEAV01@AEBV01@@Z 
??4BatchLoader@Assimp@@QEAAAEAV01@AEBV01@@Z 
??4Bitmap@Assimp@@QEAAAEAV01@$$QEAV01@@Z 
??4Bitmap@Assimp@@QEAAAEAV01@AEBV01@@Z 
??4CDT@p2t@@QEAAAEAV01@AEBV01@@Z 
??4CalcTangentsProcess@Assimp@@QEAAAEAV01@AEBV01@@Z 
??4CommentRemover@Assimp@@QEAAAEAV01@$$QEAV01@@Z 
??4CommentRemover@Assimp@@QEAAAEAV01@AEBV01@@Z 
??4DeadlyErrorBase@@QEAAAEAV0@$$QEAV0@@Z 
??4DeadlyErrorBase@@QEAAAEAV0@AEBV0@@Z 
??4DeadlyExportError@@QEAAAEAV0@$$QEAV0@@Z 
??4DeadlyExportError@@QEAAAEAV0@AEBV0@@Z 
??4DeadlyImportError@@QEAAAEAV0@$$QEAV0@@Z 
??4DeadlyImportError@@QEAAAEAV0@AEBV0@@Z 
??4DefaultIOStream@Assimp@@QEAAAEAV01@AEBV01@@Z 
??4DefaultIOSystem@Assimp@@QEAAAEAV01@$$QEAV01@@Z 
??4DefaultIOSystem@Assimp@@QEAAAEAV01@AEBV01@@Z 
??4DefaultLogger@Assimp@@QEAAAEAV01@AEBV01@@Z 
??4DropFaceNormalsProcess@Assimp@@QEAAAEAV01@AEBV01@@Z 
??4Edge@p2t@@QEAAAEAU01@$$QEAU01@@Z 
??4Edge@p2t@@QEAAAEAU01@AEBU01@@Z 
??4EmbedTexturesProcess@Assimp@@QEAAAEAV01@AEBV01@@Z 
??4ExportProperties@Assimp@@QEAAAEAV01@AEBV01@@Z 
??4Exporter@Assimp@@QEAAAEAV01@AEBV01@@Z 
??4FindDegeneratesProcess@Assimp@@QEAAAEAV01@AEBV01@@Z 
??4FindInvalidDataProcess@Assimp@@QEAAAEAV01@AEBV01@@Z 
??4GenBoundingBoxesProcess@Assimp@@QEAAAEAV01@AEBV01@@Z 
??4GenFaceNormalsProcess@Assimp@@QEAAAEAV01@AEBV01@@Z 
??4GenVertexNormalsProcess@Assimp@@QEAAAEAV01@AEBV01@@Z 
??4GeometryUtils@Assimp@@QEAAAEAV01@$$QEAV01@@Z 
??4GeometryUtils@Assimp@@QEAAAEAV01@AEBV01@@Z 
??4IOStream@Assimp@@QEAAAEAV01@AEBV01@@Z 
??4IOStreamBase@ODDLParser@@QEAAAEAV01@AEBV01@@Z 
??4IOSystem@Assimp@@QEAAAEAV01@AEBV01@@Z 
??4JoinVerticesProcess@Assimp@@QEAAAEAV01@AEBV01@@Z 
??4LimitBoneWeightsProcess@Assimp@@QEAAAEAV01@AEBV01@@Z 
??4LogStream@Assimp@@QEAAAEAV01@AEBV01@@Z 
??4Logger@Assimp@@QEAAAEAV01@AEBV01@@Z 
??4MakeVerboseFormatProcess@Assimp@@QEAAAEAV01@AEBV01@@Z 
??4NullLogger@Assimp@@QEAAAEAV01@$$QEAV01@@Z 
??4NullLogger@Assimp@@QEAAAEAV01@AEBV01@@Z 
??4Point@p2t@@QEAAAEAU01@$$QEAU01@@Z 
??4Point@p2t@@QEAAAEAU01@AEBU01@@Z 
??4PretransformVertices@Assimp@@QEAAAEAV01@AEBV01@@Z 
??4ProgressHandler@Assimp@@QEAAAEAV01@AEBV01@@Z 
??4RemoveRedundantMatsProcess@Assimp@@QEAAAEAV01@AEBV01@@Z 
??4RemoveVCProcess@Assimp@@QEAAAEAV01@AEBV01@@Z 
??4SGSpatialSort@Assimp@@QEAAAEAV01@AEBV01@@Z 
??4SIBImporter@Assimp@@QEAAAEAV01@AEBV01@@Z 
??4SMDImporter@Assimp@@QEAAAEAV01@AEBV01@@Z 
??4ScaleProcess@Assimp@@QEAAAEAV01@AEBV01@@Z 
??4SceneCombiner@Assimp@@QEAAAEAV01@AEBV01@@Z 
??4ScenePreprocessor@Assimp@@QEAAAEAV01@AEBV01@@Z 
??4SkeletonMeshBuilder@Assimp@@QEAAAEAV01@$$QEAV01@@Z 
??4SkeletonMeshBuilder@Assimp@@QEAAAEAV01@AEBV01@@Z 
??4SortByPTypeProcess@Assimp@@QEAAAEAV01@AEBV01@@Z 
??4SpatialSort@Assimp@@QEAAAEAV01@AEBV01@@Z 
??4SplitLargeMeshesProcess_Triangle@Assimp@@QEAAAEAV01@AEBV01@@Z 
??4SplitLargeMeshesProcess_Vertex@Assimp@@QEAAAEAV01@AEBV01@@Z 
??4StandardShapes@Assimp@@QEAAAEAV01@$$QEAV01@@Z 
??4StandardShapes@Assimp@@QEAAAEAV01@AEBV01@@Z 
??4StreamFormatterBase@ODDLParser@@QEAAAEAV01@AEBV01@@Z 
??4Subdivider@Assimp@@QEAAAEAV01@AEBV01@@Z 
??4Triangle@p2t@@QEAAAEAV01@$$QEAV01@@Z 
??4Triangle@p2t@@QEAAAEAV01@AEBV01@@Z 
??4TriangulateProcess@Assimp@@QEAAAEAV01@AEBV01@@Z 
??4VertexTriangleAdjacency@Assimp@@QEAAAEAV01@AEBV01@@Z 
??4aiMaterial@@QEAAAEAU0@AEBU0@@Z 
??4aiNode@@QEAAAEAU0@AEBU0@@Z 
??4aiScene@@QEAAAEAU0@AEBU0@@Z 
??4xml_attribute@pugi@@QEAAAEAV01@$$QEAV01@@Z 
??4xml_attribute@pugi@@QEAAAEAV01@AEBV01@@Z 
??4xml_attribute@pugi@@QEAAAEAV01@H@Z 
??4xml_attribute@pugi@@QEAAAEAV01@I@Z 
??4xml_attribute@pugi@@QEAAAEAV01@J@Z 
??4xml_attribute@pugi@@QEAAAEAV01@K@Z 
??4xml_attribute@pugi@@QEAAAEAV01@M@Z 
??4xml_attribute@pugi@@QEAAAEAV01@N@Z 
??4xml_attribute@pugi@@QEAAAEAV01@PEBD@Z 
??4xml_attribute@pugi@@QEAAAEAV01@V?$basic_string_view@DU?$char_traits@D@std@@@std@@@Z 
??4xml_attribute@pugi@@QEAAAEAV01@_J@Z 
??4xml_attribute@pugi@@QEAAAEAV01@_K@Z 
??4xml_attribute@pugi@@QEAAAEAV01@_N@Z 
??4xml_attribute_iterator@pugi@@QEAAAEAV01@$$QEAV01@@Z 
??4xml_attribute_iterator@pugi@@QEAAAEAV01@AEBV01@@Z 
??4xml_document@pugi@@QEAAAEAV01@$$QEAV01@@Z 
??4xml_named_node_iterator@pugi@@QEAAAEAV01@$$QEAV01@@Z 
??4xml_named_node_iterator@pugi@@QEAAAEAV01@AEBV01@@Z 
??4xml_node@pugi@@QEAAAEAV01@$$QEAV01@@Z 
??4xml_node@pugi@@QEAAAEAV01@AEBV01@@Z 
??4xml_node_iterator@pugi@@QEAAAEAV01@$$QEAV01@@Z 
??4xml_node_iterator@pugi@@QEAAAEAV01@AEBV01@@Z 
??4xml_parse_result@pugi@@QEAAAEAU01@$$QEAU01@@Z 
??4xml_parse_result@pugi@@QEAAAEAU01@AEBU01@@Z 
??4xml_text@pugi@@QEAAAEAV01@$$QEAV01@@Z 
??4xml_text@pugi@@QEAAAEAV01@AEBV01@@Z 
??4xml_text@pugi@@QEAAAEAV01@H@Z 
??4xml_text@pugi@@QEAAAEAV01@I@Z 
??4xml_text@pugi@@QEAAAEAV01@J@Z 
??4xml_text@pugi@@QEAAAEAV01@K@Z 
??4xml_text@pugi@@QEAAAEAV01@M@Z 
??4xml_text@pugi@@QEAAAEAV01@N@Z 
??4xml_text@pugi@@QEAAAEAV01@PEBD@Z 
??4xml_text@pugi@@QEAAAEAV01@V?$basic_string_view@DU?$char_traits@D@std@@@std@@@Z 
??4xml_text@pugi@@QEAAAEAV01@_J@Z 
??4xml_text@pugi@@QEAAAEAV01@_K@Z 
??4xml_text@pugi@@QEAAAEAV01@_N@Z 
??4xml_tree_walker@pugi@@QEAAAEAV01@AEBV01@@Z 
??4xml_writer@pugi@@QEAAAEAV01@AEBV01@@Z 
??4xml_writer_file@pugi@@QEAAAEAV01@$$QEAV01@@Z 
??4xml_writer_file@pugi@@QEAAAEAV01@AEBV01@@Z 
??4xml_writer_stream@pugi@@QEAAAEAV01@$$QEAV01@@Z 
??4xml_writer_stream@pugi@@QEAAAEAV01@AEBV01@@Z 
??4xpath_exception@pugi@@QEAAAEAV01@$$QEAV01@@Z 
??4xpath_exception@pugi@@QEAAAEAV01@AEBV01@@Z 
??4xpath_node@pugi@@QEAAAEAV01@$$QEAV01@@Z 
??4xpath_node@pugi@@QEAAAEAV01@AEBV01@@Z 
??4xpath_node_set@pugi@@QEAAAEAV01@$$QEAV01@@Z 
??4xpath_node_set@pugi@@QEAAAEAV01@AEBV01@@Z 
??4xpath_parse_result@pugi@@QEAAAEAU01@$$QEAU01@@Z 
??4xpath_parse_result@pugi@@QEAAAEAU01@AEBU01@@Z 
??4xpath_query@pugi@@QEAAAEAV01@$$QEAV01@@Z 
??4xpath_variable_set@pugi@@QEAAAEAV01@$$QEAV01@@Z 
??4xpath_variable_set@pugi@@QEAAAEAV01@AEBV01@@Z 
??6p2t@@YAAEAV?$basic_ostream@DU?$char_traits@D@std@@@std@@AEAV12@AEBUPoint@0@@Z 
??7xml_attribute@pugi@@QEBA_NXZ 
??7xml_node@pugi@@QEBA_NXZ 
??7xml_text@pugi@@QEBA_NXZ 
??7xpath_node@pugi@@QEBA_NXZ 
??7xpath_query@pugi@@QEBA_NXZ 
??8Iterator@Value@ODDLParser@@QEBA_NAEBV012@@Z 
??8Text@ODDLParser@@QEBA_NAEBU01@@Z 
??8Text@ODDLParser@@QEBA_NAEBV?$basic_string@DU?$char_traits@D@std@@V?$allocator@D@2@@std@@@Z 
??8xml_attribute@pugi@@QEBA_NAEBV01@@Z 
??8xml_attribute_iterator@pugi@@QEBA_NAEBV01@@Z 
??8xml_named_node_iterator@pugi@@QEBA_NAEBV01@@Z 
??8xml_node@pugi@@QEBA_NAEBV01@@Z 
??8xml_node_iterator@pugi@@QEBA_NAEBV01@@Z 
??8xpath_node@pugi@@QEBA_NAEBV01@@Z 
??9xml_attribute@pugi@@QEBA_NAEBV01@@Z 
??9xml_attribute_iterator@pugi@@QEBA_NAEBV01@@Z 
??9xml_named_node_iterator@pugi@@QEBA_NAEBV01@@Z 
??9xml_node@pugi@@QEBA_NAEBV01@@Z 
??9xml_node_iterator@pugi@@QEBA_NAEBV01@@Z 
??9xpath_node@pugi@@QEBA_NAEBV01@@Z 
??Axpath_node_set@pugi@@QEBAAEBVxpath_node@1@_K@Z 
??Bxml_attribute@pugi@@QEBAP6AXPEAPEAPEAV01@@ZXZ 
??Bxml_node@pugi@@QEBAP6AXPEAPEAPEAV01@@ZXZ 
??Bxml_parse_result@pugi@@QEBA_NXZ 
??Bxml_text@pugi@@QEBAP6AXPEAPEAPEAV01@@ZXZ 
??Bxpath_node@pugi@@QEBAP6AXPEAPEAPEAV01@@ZXZ 
??Bxpath_parse_result@pugi@@QEBA_NXZ 
??Bxpath_query@pugi@@QEBAP6AXPEAPEAPEAV01@@ZXZ 
??CIterator@Value@ODDLParser@@QEBAPEAV12@XZ 
??Cxml_attribute_iterator@pugi@@QEBAPEAVxml_attribute@1@XZ 
??Cxml_named_node_iterator@pugi@@QEBAPEAVxml_node@1@XZ 
??Cxml_node_iterator@pugi@@QEBAPEAVxml_node@1@XZ 
??Dxml_attribute_iterator@pugi@@QEBAAEAVxml_attribute@1@XZ 
??Dxml_named_node_iterator@pugi@@QEBAAEAVxml_node@1@XZ 
??Dxml_node_iterator@pugi@@QEBAAEAVxml_node@1@XZ 
??EIterator@Value@ODDLParser@@QEAA?BV012@H@Z 
??EIterator@Value@ODDLParser@@QEAAAEAV012@XZ 
??Exml_attribute_iterator@pugi@@QEAA?AV01@H@Z 
??Exml_attribute_iterator@pugi@@QEAAAEAV01@XZ 
??Exml_named_node_iterator@pugi@@QEAA?AV01@H@Z 
??Exml_named_node_iterator@pugi@@QEAAAEAV01@XZ 
??Exml_node_iterator@pugi@@QEAA?AV01@H@Z 
??Exml_node_iterator@pugi@@QEAAAEAV01@XZ 
??Fxml_attribute_iterator@pugi@@QEAA?AV01@H@Z 
??Fxml_attribute_iterator@pugi@@QEAAAEAV01@XZ 
??Fxml_named_node_iterator@pugi@@QEAA?AV01@H@Z 
??Fxml_named_node_iterator@pugi@@QEAAAEAV01@XZ 
??Fxml_node_iterator@pugi@@QEAA?AV01@H@Z 
??Fxml_node_iterator@pugi@@QEAAAEAV01@XZ 
??GPoint@p2t@@QEBA?AU01@XZ 
??Mxml_attribute@pugi@@QEBA_NAEBV01@@Z 
??Mxml_node@pugi@@QEBA_NAEBV01@@Z 
??Nxml_attribute@pugi@@QEBA_NAEBV01@@Z 
??Nxml_node@pugi@@QEBA_NAEBV01@@Z 
??Oxml_attribute@pugi@@QEBA_NAEBV01@@Z 
??Oxml_node@pugi@@QEBA_NAEBV01@@Z 
??Pxml_attribute@pugi@@QEBA_NAEBV01@@Z 
??Pxml_node@pugi@@QEBA_NAEBV01@@Z 
??XPoint@p2t@@QEAAXN@Z 
??YPoint@p2t@@QEAAXAEBU01@@Z 
??ZPoint@p2t@@QEAAXAEBU01@@Z 
??_7ArmaturePopulate@Assimp@@6B@ 
??_7BaseImporter@Assimp@@6B@ 
??_7BaseProcess@Assimp@@6B@ 
??_7CalcTangentsProcess@Assimp@@6B@ 
??_7DeadlyErrorBase@@6B@ 
??_7DeadlyExportError@@6B@ 
??_7DeadlyImportError@@6B@ 
??_7DefaultIOStream@Assimp@@6B@ 
??_7DefaultIOSystem@Assimp@@6B@ 
??_7DefaultLogger@Assimp@@6B@ 
??_7DropFaceNormalsProcess@Assimp@@6B@ 
??_7EmbedTexturesProcess@Assimp@@6B@ 
??_7FindDegeneratesProcess@Assimp@@6B@ 
??_7FindInvalidDataProcess@Assimp@@6B@ 
??_7GenBoundingBoxesProcess@Assimp@@6B@ 
??_7GenFaceNormalsProcess@Assimp@@6B@ 
??_7GenVertexNormalsProcess@Assimp@@6B@ 
??_7IOStream@Assimp@@6B@ 
??_7IOStreamBase@ODDLParser@@6B@ 
??_7IOSystem@Assimp@@6B@ 
??_7JoinVerticesProcess@Assimp@@6B@ 
??_7LimitBoneWeightsProcess@Assimp@@6B@ 
??_7LogStream@Assimp@@6B@ 
??_7Logger@Assimp@@6B@ 
??_7MakeVerboseFormatProcess@Assimp@@6B@ 
??_7NullLogger@Assimp@@6B@ 
??_7PretransformVertices@Assimp@@6B@ 
??_7ProgressHandler@Assimp@@6B@ 
??_7RemoveRedundantMatsProcess@Assimp@@6B@ 
??_7RemoveVCProcess@Assimp@@6B@ 
??_7SIBImporter@Assimp@@6B@ 
??_7SMDImporter@Assimp@@6B@ 
??_7ScaleProcess@Assimp@@6B@ 
??_7SortByPTypeProcess@Assimp@@6B@ 
??_7SplitLargeMeshesProcess_Triangle@Assimp@@6B@ 
??_7SplitLargeMeshesProcess_Vertex@Assimp@@6B@ 
??_7StreamFormatterBase@ODDLParser@@6B@ 
??_7Subdivider@Assimp@@6B@ 
??_7TriangulateProcess@Assimp@@6B@ 
??_7xml_tree_walker@pugi@@6B@ 
??_7xml_writer@pugi@@6B@ 
??_7xml_writer_file@pugi@@6B@ 
??_7xml_writer_stream@pugi@@6B@ 
??_7xpath_exception@pugi@@6B@ 
??_FIOStreamBase@ODDLParser@@QEAAXXZ 
??_FOpenDDLExport@ODDLParser@@QEAAXXZ 
??_UAllocateFromAssimpHeap@Intern@Assimp@@SAPEAX_K@Z 
??_UAllocateFromAssimpHeap@Intern@Assimp@@SAPEAX_KAEBUnothrow_t@std@@@Z 
??_VAllocateFromAssimpHeap@Intern@Assimp@@SAXPEAX@Z 
?Add@SGSpatialSort@Assimp@@QEAAXAEBV?$aiVector3t@M@@II@Z 
?AddBinaryProperty@aiMaterial@@QEAA?AW4aiReturn@@PEBXIPEBDIIW4aiPropertyTypeInfo@@@Z 
?AddBoneChildren@SMDImporter@Assimp@@IEAAXPEAUaiNode@@I@Z 
?AddHole@CDT@p2t@@QEAAXAEBV?$vector@PEAUPoint@p2t@@V?$allocator@PEAUPoint@p2t@@@std@@@std@@@Z 
?AddLoadRequest@BatchLoader@Assimp@@QEAAIAEBV?$basic_string@DU?$char_traits@D@std@@V?$allocator@D@2@@std@@IPEBUPropertyMap@12@@Z 
?AddNodeHashes@SceneCombiner@Assimp@@CAXPEAUaiNode@@AEAV?$set@IU?$less@I@std@@V?$allocator@I@2@@std@@@Z 
?AddNodePrefixes@SceneCombiner@Assimp@@SAXPEAUaiNode@@PEBDI@Z 
?AddNodePrefixesChecked@SceneCombiner@Assimp@@CAXPEAUaiNode@@PEBDIAEAV?$vector@USceneHelper@Assimp@@V?$allocator@USceneHelper@Assimp@@@std@@@std@@I@Z 
?AddPoint@CDT@p2t@@QEAAXPEAUPoint@2@@Z 
?AddProperty@aiMaterial@@QEAA?AW4aiReturn@@PEBHIPEBDII@Z 
?AddProperty@aiMaterial@@QEAA?AW4aiReturn@@PEBMIPEBDII@Z 
?AddProperty@aiMaterial@@QEAA?AW4aiReturn@@PEBNIPEBDII@Z 
?AddProperty@aiMaterial@@QEAA?AW4aiReturn@@PEBUaiColor3D@@IPEBDII@Z 
?AddProperty@aiMaterial@@QEAA?AW4aiReturn@@PEBUaiString@@PEBDII@Z 
?AddProperty@aiMaterial@@QEAA?AW4aiReturn@@PEBUaiUVTransform@@IPEBDII@Z 
?AddProperty@aiMaterial@@QEAA?AW4aiReturn@@PEBV?$aiColor4t@M@@IPEBDII@Z 
?AddProperty@aiMaterial@@QEAA?AW4aiReturn@@PEBV?$aiVector3t@M@@IPEBDII@Z 
?Append@SpatialSort@Assimp@@QEAAXPEBV?$aiVector3t@M@@II_N@Z 
?ApplyCustomizedPostProcessing@Importer@Assimp@@QEAAPEBUaiScene@@PEAVBaseProcess@2@_N@Z 
?ApplyPostProcessing@Importer@Assimp@@QEAAPEBUaiScene@@I@Z 
?ApplyTransform@PretransformVertices@Assimp@@AEBAXPEAUaiMesh@@AEBV?$aiMatrix4x4t@M@@@Z 
?AttachToGraph@SceneCombiner@Assimp@@SAXPEAUaiNode@@AEAV?$vector@UNodeAttachmentInfo@Assimp@@V?$allocator@UNodeAttachmentInfo@Assimp@@@std@@@std@@@Z 
?AttachToGraph@SceneCombiner@Assimp@@SAXPEAUaiScene@@AEAV?$vector@UNodeAttachmentInfo@Assimp@@V?$allocator@UNodeAttachmentInfo@Assimp@@@std@@@std@@@Z 
?Buffersize@ObjFileParser@Assimp@@2_KB 
?BuildBoneList@ArmaturePopulate@Assimp@@SAXPEAUaiNode@@PEBU3@PEBUaiScene@@AEAV?$vector@PEAUaiBone@@V?$allocator@PEAUaiBone@@@std@@@std@@@Z 
?BuildBoneStack@ArmaturePopulate@Assimp@@SAXPEBUaiNode@@PEBUaiScene@@AEBV?$vector@PEAUaiBone@@V?$allocator@PEAUaiBone@@@std@@@std@@AEAV?$map@PEAUaiBone@@PEAUaiNode@@U?$less@PEAUaiBone@@@std@@V?$allocator@U?$pair@QEAUaiBone@@PEAUaiNode@@@std@@@4@@6@AEAV?$vector@PEAUaiNode@@V?$allocator@PEAUaiNode@@@std@@@6@@Z 
?BuildMeshRefCountArray@PretransformVertices@Assimp@@AEBAXPEBUaiNode@@PEAI@Z 
?BuildNodeList@ArmaturePopulate@Assimp@@SAXPEBUaiNode@@AEAV?$vector@PEAUaiNode@@V?$allocator@PEAUaiNode@@@std@@@std@@@Z 
?BuildUniqueBoneList@SceneCombiner@Assimp@@SAXAEAV?$list@UBoneWithHash@Assimp@@V?$allocator@UBoneWithHash@Assimp@@@std@@@std@@V?$_Vector_const_iterator@V?$_Vector_val@U?$_Simple_types@PEAUaiMesh@@@std@@@std@@@4@1@Z 
?BuildWCSMeshes@PretransformVertices@Assimp@@AEBAXAEAV?$vector@PEAUaiMesh@@V?$allocator@PEAUaiMesh@@@std@@@std@@PEAPEAUaiMesh@@IPEAUaiNode@@@Z 
?CPUSupportsSSE2@Assimp@@YA_NXZ 
?CalculateDistance@SpatialSort@Assimp@@IEBAMAEBV?$aiVector3t@M@@@Z 
?CanRead@SIBImporter@Assimp@@UEBA_NAEBV?$basic_string@DU?$char_traits@D@std@@V?$allocator@D@2@@std@@PEAVIOSystem@2@_N@Z 
?CanRead@SMDImporter@Assimp@@UEBA_NAEBV?$basic_string@DU?$char_traits@D@std@@V?$allocator@D@2@@std@@PEAVIOSystem@2@_N@Z 
?ChangeDirectory@IOSystem@Assimp@@UEAA_NAEBV?$basic_string@DU?$char_traits@D@std@@V?$allocator@D@2@@std@@@Z 
?CheckMagicToken@BaseImporter@Assimp@@SA_NPEAVIOSystem@2@AEBV?$basic_string@DU?$char_traits@D@std@@V?$allocator@D@2@@std@@PEBX_KII@Z 
?CircumcicleContains@Triangle@p2t@@QEBA_NAEBUPoint@2@@Z 
?Clear@Triangle@p2t@@QEAAXXZ 
?Clear@aiMaterial@@QEAAXXZ 
?ClearDelunayEdges@Triangle@p2t@@QEAAXXZ 
?ClearNeighbor@Triangle@p2t@@QEAAXPEBV12@@Z 
?ClearNeighbors@Triangle@p2t@@QEAAXXZ 
?Close@DefaultIOSystem@Assimp@@UEAAXPEAVIOStream@2@@Z 
?CollectData@PretransformVertices@Assimp@@AEBAXPEBUaiScene@@PEBUaiNode@@IIPEAUaiMesh@@QEAIPEAI@Z 
?ComparePaths@DefaultIOSystem@Assimp@@UEBA_NPEBD0@Z 
?ComparePaths@IOSystem@Assimp@@QEBA_NAEBV?$basic_string@DU?$char_traits@D@std@@V?$allocator@D@2@@std@@0@Z 
?ComparePaths@IOSystem@Assimp@@UEBA_NPEBD0@Z 
?ComputeAbsoluteTransform@PretransformVertices@Assimp@@AEAAXPEAUaiNode@@@Z 
?Contains@Triangle@p2t@@QEAA_NAEBUEdge@2@@Z 
?Contains@Triangle@p2t@@QEAA_NPEBUPoint@2@0@Z 
?Contains@Triangle@p2t@@QEAA_NPEBUPoint@2@@Z 
?ConvertToUTF8@BaseImporter@Assimp@@SAXAEAV?$vector@DV?$allocator@D@std@@@std@@@Z 
?ConvertUTF8toISO8859_1@BaseImporter@Assimp@@SAXAEAV?$basic_string@DU?$char_traits@D@std@@V?$allocator@D@2@@std@@@Z 
?Copy@SceneCombiner@Assimp@@SAXPEAPEAUaiAnimMesh@@PEBU3@@Z 
?Copy@SceneCombiner@Assimp@@SAXPEAPEAUaiAnimation@@PEBU3@@Z 
?Copy@SceneCombiner@Assimp@@SAXPEAPEAUaiBone@@PEBU3@@Z 
?Copy@SceneCombiner@Assimp@@SAXPEAPEAUaiCamera@@PEBU3@@Z 
?Copy@SceneCombiner@Assimp@@SAXPEAPEAUaiLight@@PEBU3@@Z 
?Copy@SceneCombiner@Assimp@@SAXPEAPEAUaiMaterial@@PEBU3@@Z 
?Copy@SceneCombiner@Assimp@@SAXPEAPEAUaiMesh@@PEBU3@@Z 
?Copy@SceneCombiner@Assimp@@SAXPEAPEAUaiMeshMorphAnim@@PEBU3@@Z 
?Copy@SceneCombiner@Assimp@@SAXPEAPEAUaiMetadata@@PEBU3@@Z 
?Copy@SceneCombiner@Assimp@@SAXPEAPEAUaiNode@@PEBU3@@Z 
?Copy@SceneCombiner@Assimp@@SAXPEAPEAUaiNodeAnim@@PEBU3@@Z 
?Copy@SceneCombiner@Assimp@@SAXPEAPEAUaiString@@PEBU3@@Z 
?Copy@SceneCombiner@Assimp@@SAXPEAPEAUaiTexture@@PEBU3@@Z 
?CopyPropertyList@aiMaterial@@SAXPEAU1@PEBU1@@Z 
?CopyScene@SceneCombiner@Assimp@@SAXPEAPEAUaiScene@@PEBU3@_N@Z 
?CopySceneFlat@SceneCombiner@Assimp@@SAXPEAPEAUaiScene@@PEBU3@@Z 
?CountNodes@PretransformVertices@Assimp@@AEBAIPEBUaiNode@@@Z 
?CountVerticesAndFaces@PretransformVertices@Assimp@@AEBAXPEBUaiScene@@PEBUaiNode@@IIPEAI2@Z 
?Create@Subdivider@Assimp@@SAPEAV12@W4Algorithm@12@@Z 
?CreateDirectory@IOSystem@Assimp@@UEAA_NAEBV?$basic_string@DU?$char_traits@D@std@@V?$allocator@D@2@@std@@@Z 
?CreateGeometry@SkeletonMeshBuilder@Assimp@@IEAAXPEBUaiNode@@@Z 
?CreateMaterial@SkeletonMeshBuilder@Assimp@@IEAAPEAUaiMaterial@@XZ 
?CreateMesh@SkeletonMeshBuilder@Assimp@@IEAAPEAUaiMesh@@XZ 
?CreateOutputAnimation@SMDImporter@Assimp@@IEAAXHAEBV?$basic_string@DU?$char_traits@D@std@@V?$allocator@D@2@@std@@@Z 
?CreateOutputAnimations@SMDImporter@Assimp@@IEAAXAEBV?$basic_string@DU?$char_traits@D@std@@V?$allocator@D@2@@std@@PEAVIOSystem@2@@Z 
?CreateOutputMaterials@SMDImporter@Assimp@@IEAAXXZ 
?CreateOutputMeshes@SMDImporter@Assimp@@IEAAXXZ 
?CreateOutputNodes@SMDImporter@Assimp@@IEAAXXZ 
?CurrentDirectory@IOSystem@Assimp@@UEBAAEBV?$basic_string@DU?$char_traits@D@std@@V?$allocator@D@2@@std@@XZ 
?DEFAULT_MATERIAL@ObjFileParser@Assimp@@0QBDB 
?DebugPrint@Triangle@p2t@@QEAAXXZ 
?Decode@Base64@Assimp@@YA?AV?$vector@EV?$allocator@E@std@@@std@@AEBV?$basic_string@DU?$char_traits@D@std@@V?$allocator@D@2@@4@@Z 
?Decode@Base64@Assimp@@YA_KAEBV?$basic_string@DU?$char_traits@D@std@@V?$allocator@D@2@@std@@AEAV?$vector@EV?$allocator@E@std@@@4@@Z 
?Decode@Base64@Assimp@@YA_KPEBD_KAEAPEAE@Z 
?DeleteFile@IOSystem@Assimp@@UEAA_NAEBV?$basic_string@DU?$char_traits@D@std@@V?$allocator@D@2@@std@@@Z 
?DropMeshFaceNormals@DropFaceNormalsProcess@Assimp@@AEAA_NPEAUaiMesh@@@Z 
?DumpSceneToAssbin@Assimp@@YAXPEBD0PEAVIOSystem@1@PEBUaiScene@@_N3@Z 
?DumpSceneToAssxml@Assimp@@YAXPEBD0PEAVIOSystem@1@PEBUaiScene@@_N@Z 
?EdgeIndex@Triangle@p2t@@QEAAHPEBUPoint@2@0@Z 
?EnableAreaCheck@FindDegeneratesProcess@Assimp@@QEAAX_N@Z 
?EnableInstantRemoval@FindDegeneratesProcess@Assimp@@QEAAX_N@Z 
?Encode@Base64@Assimp@@YA?AV?$basic_string@DU?$char_traits@D@std@@V?$allocator@D@2@@std@@AEBV?$vector@EV?$allocator@E@std@@@4@@Z 
?Encode@Base64@Assimp@@YAXAEBV?$vector@EV?$allocator@E@std@@@std@@AEAV?$basic_string@DU?$char_traits@D@std@@V?$allocator@D@2@@4@@Z 
?Encode@Base64@Assimp@@YAXPEBE_KAEAV?$basic_string@DU?$char_traits@D@std@@V?$allocator@D@2@@std@@@Z 
?Execute@ArmaturePopulate@Assimp@@UEAAXPEAUaiScene@@@Z 
?Execute@CalcTangentsProcess@Assimp@@MEAAXPEAUaiScene@@@Z 
?Execute@DropFaceNormalsProcess@Assimp@@UEAAXPEAUaiScene@@@Z 
?Execute@EmbedTexturesProcess@Assimp@@UEAAXPEAUaiScene@@@Z 
?Execute@FindDegeneratesProcess@Assimp@@UEAAXPEAUaiScene@@@Z 
?Execute@FindInvalidDataProcess@Assimp@@UEAAXPEAUaiScene@@@Z 
?Execute@GenBoundingBoxesProcess@Assimp@@UEAAXPEAUaiScene@@@Z 
?Execute@GenFaceNormalsProcess@Assimp@@UEAAXPEAUaiScene@@@Z 
?Execute@GenVertexNormalsProcess@Assimp@@UEAAXPEAUaiScene@@@Z 
?Execute@JoinVerticesProcess@Assimp@@UEAAXPEAUaiScene@@@Z 
?Execute@LimitBoneWeightsProcess@Assimp@@UEAAXPEAUaiScene@@@Z 
?Execute@MakeVerboseFormatProcess@Assimp@@UEAAXPEAUaiScene@@@Z 
?Execute@PretransformVertices@Assimp@@UEAAXPEAUaiScene@@@Z 
?Execute@RemoveRedundantMatsProcess@Assimp@@UEAAXPEAUaiScene@@@Z 
?Execute@RemoveVCProcess@Assimp@@UEAAXPEAUaiScene@@@Z 
?Execute@ScaleProcess@Assimp@@UEAAXPEAUaiScene@@@Z 
?Execute@SortByPTypeProcess@Assimp@@UEAAXPEAUaiScene@@@Z 
?Execute@SplitLargeMeshesProcess_Triangle@Assimp@@UEAAXPEAUaiScene@@@Z 
?Execute@SplitLargeMeshesProcess_Vertex@Assimp@@UEAAXPEAUaiScene@@@Z 
?Execute@TriangulateProcess@Assimp@@UEAAXPEAUaiScene@@@Z 
?ExecuteOnMesh@FindDegeneratesProcess@Assimp@@QEAA_NPEAUaiMesh@@@Z 
?ExecuteOnScene@BaseProcess@Assimp@@QEAAXPEAVImporter@2@@Z 
?Exists@DefaultIOSystem@Assimp@@UEBA_NPEBD@Z 
?Exists@IOSystem@Assimp@@QEBA_NAEBV?$basic_string@DU?$char_traits@D@std@@V?$allocator@D@2@@std@@@Z 
?Export@Exporter@Assimp@@QEAA?AW4aiReturn@@PEBUaiScene@@AEBV?$basic_string@DU?$char_traits@D@std@@V?$allocator@D@2@@std@@1IPEBVExportProperties@2@@Z 
?Export@Exporter@Assimp@@QEAA?AW4aiReturn@@PEBUaiScene@@PEBD1IPEBVExportProperties@2@@Z 
?ExportToBlob@Exporter@Assimp@@QEAAPEBUaiExportDataBlob@@PEBUaiScene@@AEBV?$basic_string@DU?$char_traits@D@std@@V?$allocator@D@2@@std@@IPEBVExportProperties@2@@Z 
?ExportToBlob@Exporter@Assimp@@QEAAPEBUaiExportDataBlob@@PEBUaiScene@@PEBDIPEBVExportProperties@2@@Z 
?FileSize@DefaultIOStream@Assimp@@UEBA_KXZ 
?Fill@SpatialSort@Assimp@@QEAAXPEBV?$aiVector3t@M@@II_N@Z 
?Finalize@SpatialSort@Assimp@@QEAAXXZ 
?FindIdenticalPositions@SpatialSort@Assimp@@QEBAXAEBV?$aiVector3t@M@@AEAV?$vector@IV?$allocator@I@std@@@std@@@Z 
?FindNameMatch@SceneCombiner@Assimp@@CA_NAEBUaiString@@AEAV?$vector@USceneHelper@Assimp@@V?$allocator@USceneHelper@Assimp@@@std@@@std@@I@Z 
?FindNode@aiNode@@QEAAPEAU1@AEBUaiString@@@Z 
?FindNode@aiNode@@QEAAPEAU1@PEBD@Z 
?FindNode@aiNode@@QEBAPEBU1@AEBUaiString@@@Z 
?FindNode@aiNode@@QEBAPEBU1@PEBD@Z 
?FindPositions@SGSpatialSort@Assimp@@QEBAXAEBV?$aiVector3t@M@@IMAEAV?$vector@IV?$allocator@I@std@@@std@@_N@Z 
?FindPositions@SpatialSort@Assimp@@QEBAXAEBV?$aiVector3t@M@@MAEAV?$vector@IV?$allocator@I@std@@@std@@@Z 
?FixTimeValues@SMDImporter@Assimp@@IEAAXXZ 
?Flush@DefaultIOStream@Assimp@@UEAAXXZ 
?FreeBlob@Exporter@Assimp@@QEAAXXZ 
?FreeScene@Importer@Assimp@@QEAAXXZ 
?GenMeshFaceNormals@GenFaceNormalsProcess@Assimp@@AEAA_NPEAUaiMesh@@@Z 
?GenMeshVertexNormals@GenVertexNormalsProcess@Assimp@@QEAA_NPEAUaiMesh@@I@Z 
?GenerateMappingTable@SpatialSort@Assimp@@QEBAIAEAV?$vector@IV?$allocator@I@std@@@std@@M@Z 
?Get@aiMaterial@@QEBA?AW4aiReturn@@PEBDIIAEAH@Z 
?Get@aiMaterial@@QEBA?AW4aiReturn@@PEBDIIAEAM@Z 
?Get@aiMaterial@@QEBA?AW4aiReturn@@PEBDIIAEAUaiColor3D@@@Z 
?Get@aiMaterial@@QEBA?AW4aiReturn@@PEBDIIAEAUaiString@@@Z 
?Get@aiMaterial@@QEBA?AW4aiReturn@@PEBDIIAEAUaiUVTransform@@@Z 
?Get@aiMaterial@@QEBA?AW4aiReturn@@PEBDIIAEAV?$aiColor4t@M@@@Z 
?Get@aiMaterial@@QEBA?AW4aiReturn@@PEBDIIPEAHPEAI@Z 
?Get@aiMaterial@@QEBA?AW4aiReturn@@PEBDIIPEAMPEAI@Z 
?GetAdjacentTriangles@VertexTriangleAdjacency@Assimp@@QEBAPEAII@Z 
?GetAnimationFileList@SMDImporter@Assimp@@IEAAXAEBV?$basic_string@DU?$char_traits@D@std@@V?$allocator@D@2@@std@@PEAVIOSystem@2@AEAV?$vector@V?$tuple@V?$basic_string@DU?$char_traits@D@std@@V?$allocator@D@2@@std@@V12@@std@@V?$allocator@V?$tuple@V?$basic_string@DU?$char_traits@D@std@@V?$allocator@D@2@@std@@V12@@std@@@2@@4@@Z 
?GetArmatureRoot@ArmaturePopulate@Assimp@@SAPEAUaiNode@@PEAU3@AEAV?$vector@PEAUaiBone@@V?$allocator@PEAUaiBone@@@std@@@std@@@Z 
?GetBlob@Exporter@Assimp@@QEBAPEBUaiExportDataBlob@@XZ 
?GetConstrainedEdgeCCW@Triangle@p2t@@QEAA_NAEBUPoint@2@@Z 
?GetConstrainedEdgeCW@Triangle@p2t@@QEAA_NAEBUPoint@2@@Z 
?GetDeleteFlags@RemoveVCProcess@Assimp@@QEBAIXZ 
?GetDelunayEdgeCCW@Triangle@p2t@@QEAA_NAEBUPoint@2@@Z 
?GetDelunayEdgeCW@Triangle@p2t@@QEAA_NAEBUPoint@2@@Z 
?GetEmbeddedTexture@aiScene@@QEBAPEBUaiTexture@@PEBD@Z 
?GetEmbeddedTextureAndIndex@aiScene@@QEBA?AU?$pair@PEBUaiTexture@@H@std@@PEBD@Z 
?GetErrorString@Exporter@Assimp@@QEBAPEBDXZ 
?GetErrorString@Importer@Assimp@@QEBAPEBDXZ 
?GetErrorText@BaseImporter@Assimp@@QEBAAEBV?$basic_string@DU?$char_traits@D@std@@V?$allocator@D@2@@std@@XZ 
?GetException@BaseImporter@Assimp@@QEBAAEBVexception_ptr@std@@XZ 
?GetException@Importer@Assimp@@QEBAAEBVexception_ptr@std@@XZ 
?GetExportFormatCount@Exporter@Assimp@@QEBA_KXZ 
?GetExportFormatDescription@Exporter@Assimp@@QEBAPEBUaiExportFormatDesc@@_K@Z 
?GetExtension@BaseImporter@Assimp@@SA?AV?$basic_string@DU?$char_traits@D@std@@V?$allocator@D@2@@std@@AEBV34@@Z 
?GetExtensionList@BaseImporter@Assimp@@QEAAXAEAV?$set@V?$basic_string@DU?$char_traits@D@std@@V?$allocator@D@2@@std@@U?$less@V?$basic_string@DU?$char_traits@D@std@@V?$allocator@D@2@@std@@@2@V?$allocator@V?$basic_string@DU?$char_traits@D@std@@V?$allocator@D@2@@std@@@2@@std@@@Z 
?GetExtensionList@Importer@Assimp@@QEBAXAEAUaiString@@@Z 
?GetExtensionList@Importer@Assimp@@QEBAXAEAV?$basic_string@DU?$char_traits@D@std@@V?$allocator@D@2@@std@@@Z 
?GetFixedMaterialsString@RemoveRedundantMatsProcess@Assimp@@QEBAAEBV?$basic_string@DU?$char_traits@D@std@@V?$allocator@D@2@@std@@XZ 
?GetIOHandler@Exporter@Assimp@@QEBAPEAVIOSystem@2@XZ 
?GetIOHandler@Importer@Assimp@@QEBAPEAVIOSystem@2@XZ 
?GetImport@BatchLoader@Assimp@@QEAAPEAUaiScene@@I@Z 
?GetImporter@Importer@Assimp@@QEBAPEAVBaseImporter@2@PEBD@Z 
?GetImporter@Importer@Assimp@@QEBAPEAVBaseImporter@2@_K@Z 
?GetImporterCount@Importer@Assimp@@QEBA_KXZ 
?GetImporterIndex@Importer@Assimp@@QEBA_KPEBD@Z 
?GetImporterInfo@Importer@Assimp@@QEBAPEBUaiImporterDesc@@_K@Z 
?GetInfo@SIBImporter@Assimp@@MEBAPEBUaiImporterDesc@@XZ 
?GetInfo@SMDImporter@Assimp@@MEBAPEBUaiImporterDesc@@XZ 
?GetLimit@SplitLargeMeshesProcess_Triangle@Assimp@@QEBAIXZ 
?GetLimit@SplitLargeMeshesProcess_Vertex@Assimp@@QEBAIXZ 
?GetMap@CDT@p2t@@QEAA?AV?$list@PEAVTriangle@p2t@@V?$allocator@PEAVTriangle@p2t@@@std@@@std@@XZ 
?GetMemoryRequirements@Importer@Assimp@@QEBAXAEAUaiMemoryInfo@@@Z 
?GetModel@ObjFileParser@Assimp@@QEBAPEAUModel@ObjFile@2@XZ 
?GetName@aiMaterial@@QEBA?AUaiString@@XZ 
?GetNeighbor@Triangle@p2t@@QEAAPEAV12@H@Z 
?GetNodeFromStack@ArmaturePopulate@Assimp@@SAPEAUaiNode@@AEBUaiString@@AEAV?$vector@PEAUaiNode@@V?$allocator@PEAUaiNode@@@std@@@std@@@Z 
?GetNumTrianglesPtr@VertexTriangleAdjacency@Assimp@@QEAAAEAII@Z 
?GetOrphanedBlob@Exporter@Assimp@@QEBAPEBUaiExportDataBlob@@XZ 
?GetOrphanedScene@Importer@Assimp@@QEAAPEAUaiScene@@XZ 
?GetPoint@Triangle@p2t@@QEAAPEAUPoint@2@H@Z 
?GetProgressHandler@Importer@Assimp@@QEBAPEAVProgressHandler@2@XZ 
?GetPropertyBool@ExportProperties@Assimp@@QEBA_NPEBD_N@Z 
?GetPropertyBool@Importer@Assimp@@QEBA_NPEBD_N@Z 
?GetPropertyCallback@ExportProperties@Assimp@@QEBA?AV?$function@$$A6APEAXPEAX@Z@std@@PEBD@Z 
?GetPropertyFloat@ExportProperties@Assimp@@QEBAMPEBDM@Z 
?GetPropertyFloat@Importer@Assimp@@QEBAMPEBDM@Z 
?GetPropertyInteger@ExportProperties@Assimp@@QEBAHPEBDH@Z 
?GetPropertyInteger@Importer@Assimp@@QEBAHPEBDH@Z 
?GetPropertyMatrix@ExportProperties@Assimp@@QEBA?BV?$aiMatrix4x4t@M@@PEBDAEBV3@@Z 
?GetPropertyMatrix@Importer@Assimp@@QEBA?AV?$aiMatrix4x4t@M@@PEBDAEBV3@@Z 
?GetPropertyPointer@Importer@Assimp@@QEBAPEAXPEBDPEAX@Z 
?GetPropertyString@ExportProperties@Assimp@@QEBA?BV?$basic_string@DU?$char_traits@D@std@@V?$allocator@D@2@@std@@PEBDAEBV34@@Z 
?GetPropertyString@Importer@Assimp@@QEBA?AV?$basic_string@DU?$char_traits@D@std@@V?$allocator@D@2@@std@@PEBDAEBV34@@Z 
?GetScene@Importer@Assimp@@QEBAPEBUaiScene@@XZ 
?GetSharedData@BaseProcess@Assimp@@QEAAPEAVSharedPostProcessInfo@2@XZ 
?GetShortFilename@aiScene@@SAPEBDPEBD@Z 
?GetTexture@aiMaterial@@QEBA?AW4aiReturn@@W4aiTextureType@@IPEAUaiString@@PEAW4aiTextureMapping@@PEAIPEAMPEAW4aiTextureOp@@PEAW4aiTextureMapMode@@@Z 
?GetTextureCount@aiMaterial@@QEBAIW4aiTextureType@@@Z 
?GetTextureIndex@SMDImporter@Assimp@@IEAAIAEBV?$basic_string@DU?$char_traits@D@std@@V?$allocator@D@2@@std@@@Z 
?GetThreadID@DefaultLogger@Assimp@@AEAAIXZ 
?GetTriangles@CDT@p2t@@QEAA?AV?$vector@PEAVTriangle@p2t@@V?$allocator@PEAVTriangle@p2t@@@std@@@std@@XZ 
?HasAnimations@aiScene@@QEBA_NXZ 
?HasCameras@aiScene@@QEBA_NXZ 
?HasExtension@BaseImporter@Assimp@@SA_NAEBV?$basic_string@DU?$char_traits@D@std@@V?$allocator@D@2@@std@@AEBV?$set@V?$basic_string@DU?$char_traits@D@std@@V?$allocator@D@2@@std@@U?$less@V?$basic_string@DU?$char_traits@D@std@@V?$allocator@D@2@@std@@@2@V?$allocator@V?$basic_string@DU?$char_traits@D@std@@V?$allocator@D@2@@std@@@2@@4@@Z 
?HasLights@aiScene@@QEBA_NXZ 
?HasMaterials@aiScene@@QEBA_NXZ 
?HasMeshes@aiScene@@QEBA_NXZ 
?HasPropertyBool@ExportProperties@Assimp@@QEBA_NPEBD@Z 
?HasPropertyCallback@ExportProperties@Assimp@@QEBA_NPEBD@Z 
?HasPropertyFloat@ExportProperties@Assimp@@QEBA_NPEBD@Z 
?HasPropertyInteger@ExportProperties@Assimp@@QEBA_NPEBD@Z 
?HasPropertyMatrix@ExportProperties@Assimp@@QEBA_NPEBD@Z 
?HasPropertyString@ExportProperties@Assimp@@QEBA_NPEBD@Z 
?HasSkeletons@aiScene@@QEBA_NXZ 
?HasTextures@aiScene@@QEBA_NXZ 
?Index@Triangle@p2t@@QEAAHPEBUPoint@2@@Z 
?InternReadFile@SIBImporter@Assimp@@MEAAXAEBV?$basic_string@DU?$char_traits@D@std@@V?$allocator@D@2@@std@@PEAUaiScene@@PEAVIOSystem@2@@Z 
?InternReadFile@SMDImporter@Assimp@@MEAAXAEBV?$basic_string@DU?$char_traits@D@std@@V?$allocator@D@2@@std@@PEAUaiScene@@PEAVIOSystem@2@@Z 
?IsActive@ArmaturePopulate@Assimp@@UEBA_NI@Z 
?IsActive@CalcTangentsProcess@Assimp@@UEBA_NI@Z 
?IsActive@DropFaceNormalsProcess@Assimp@@UEBA_NI@Z 
?IsActive@EmbedTexturesProcess@Assimp@@UEBA_NI@Z 
?IsActive@FindDegeneratesProcess@Assimp@@UEBA_NI@Z 
?IsActive@FindInvalidDataProcess@Assimp@@UEBA_NI@Z 
?IsActive@GenBoundingBoxesProcess@Assimp@@UEBA_NI@Z 
?IsActive@GenFaceNormalsProcess@Assimp@@UEBA_NI@Z 
?IsActive@GenVertexNormalsProcess@Assimp@@UEBA_NI@Z 
?IsActive@JoinVerticesProcess@Assimp@@UEBA_NI@Z 
?IsActive@LimitBoneWeightsProcess@Assimp@@UEBA_NI@Z 
?IsActive@MakeVerboseFormatProcess@Assimp@@UEBA_NI@Z 
?IsActive@PretransformVertices@Assimp@@UEBA_NI@Z 
?IsActive@RemoveRedundantMatsProcess@Assimp@@UEBA_NI@Z 
?IsActive@RemoveVCProcess@Assimp@@UEBA_NI@Z 
?IsActive@ScaleProcess@Assimp@@UEBA_NI@Z 
?IsActive@SortByPTypeProcess@Assimp@@UEBA_NI@Z 
?IsActive@SplitLargeMeshesProcess_Triangle@Assimp@@UEBA_NI@Z 
?IsActive@SplitLargeMeshesProcess_Vertex@Assimp@@UEBA_NI@Z 
?IsActive@TriangulateProcess@Assimp@@UEBA_NI@Z 
?IsCounterClockwise@Triangle@p2t@@AEBA_NXZ 
?IsDefaultIOHandler@Exporter@Assimp@@QEBA_NXZ 
?IsDefaultIOHandler@Importer@Assimp@@QEBA_NXZ 
?IsDefaultProgressHandler@Importer@Assimp@@QEBA_NXZ 
?IsDelaunay@p2t@@YA_NAEBV?$vector@PEAVTriangle@p2t@@V?$allocator@PEAVTriangle@p2t@@@std@@@std@@@Z 
?IsExtensionSupported@Importer@Assimp@@QEBA_NAEBV?$basic_string@DU?$char_traits@D@std@@V?$allocator@D@2@@std@@@Z 
?IsExtensionSupported@Importer@Assimp@@QEBA_NPEBD@Z 
?IsHierarchyKept@PretransformVertices@Assimp@@QEBA_NXZ 
?IsInstantRemoval@FindDegeneratesProcess@Assimp@@QEBA_NXZ 
?IsInterior@Triangle@p2t@@QEAAX_N@Z 
?IsInterior@Triangle@p2t@@QEAA_NXZ 
?IsVerboseFormat@MakeVerboseFormatProcess@Assimp@@SA_NPEBUaiScene@@@Z 
?KeepHierarchy@PretransformVertices@Assimp@@QEAAX_N@Z 
?Legalize@Triangle@p2t@@QEAAXAEAUPoint@2@0@Z 
?Legalize@Triangle@p2t@@QEAAXAEAUPoint@2@@Z 
?Length@Point@p2t@@QEBANXZ 
?LoadAll@BatchLoader@Assimp@@QEAAXXZ 
?LogErrorNoThrow@SMDImporter@Assimp@@IEAAXPEBD@Z 
?LogWarning@SMDImporter@Assimp@@IEAAXPEBD@Z 
?MakeCircle@StandardShapes@Assimp@@SAXMIAEAV?$vector@V?$aiVector3t@M@@V?$allocator@V?$aiVector3t@M@@@std@@@std@@@Z 
?MakeCone@StandardShapes@Assimp@@SAXMMMIAEAV?$vector@V?$aiVector3t@M@@V?$allocator@V?$aiVector3t@M@@@std@@@std@@_N@Z 
?MakeDodecahedron@StandardShapes@Assimp@@SAIAEAV?$vector@V?$aiVector3t@M@@V?$allocator@V?$aiVector3t@M@@@std@@@std@@_N@Z 
?MakeHexahedron@StandardShapes@Assimp@@SAIAEAV?$vector@V?$aiVector3t@M@@V?$allocator@V?$aiVector3t@M@@@std@@@std@@_N@Z 
?MakeIcosahedron@StandardShapes@Assimp@@SAIAEAV?$vector@V?$aiVector3t@M@@V?$allocator@V?$aiVector3t@M@@@std@@@std@@@Z 
?MakeIdentityTransform@PretransformVertices@Assimp@@AEBAXPEAUaiNode@@@Z 
?MakeMesh@StandardShapes@Assimp@@SAPEAUaiMesh@@AEBV?$vector@V?$aiVector3t@M@@V?$allocator@V?$aiVector3t@M@@@std@@@std@@I@Z 
?MakeMesh@StandardShapes@Assimp@@SAPEAUaiMesh@@IP6AXIAEAV?$vector@V?$aiVector3t@M@@V?$allocator@V?$aiVector3t@M@@@std@@@std@@@Z@Z 
?MakeMesh@StandardShapes@Assimp@@SAPEAUaiMesh@@P6AIAEAV?$vector@V?$aiVector3t@M@@V?$allocator@V?$aiVector3t@M@@@std@@@std@@@Z@Z 
?MakeMesh@StandardShapes@Assimp@@SAPEAUaiMesh@@P6AIAEAV?$vector@V?$aiVector3t@M@@V?$allocator@V?$aiVector3t@M@@@std@@@std@@_N@Z@Z 
?MakeOctahedron@StandardShapes@Assimp@@SAIAEAV?$vector@V?$aiVector3t@M@@V?$allocator@V?$aiVector3t@M@@@std@@@std@@@Z 
?MakeSphere@StandardShapes@Assimp@@SAXIAEAV?$vector@V?$aiVector3t@M@@V?$allocator@V?$aiVector3t@M@@@std@@@std@@@Z 
?MakeTetrahedron@StandardShapes@Assimp@@SAIAEAV?$vector@V?$aiVector3t@M@@V?$allocator@V?$aiVector3t@M@@@std@@@std@@@Z 
?MakeVerboseFormat@MakeVerboseFormatProcess@Assimp@@AEAA_NPEAUaiMesh@@@Z 
?MarkConstrainedEdge@Triangle@p2t@@QEAAXAEAUEdge@2@@Z 
?MarkConstrainedEdge@Triangle@p2t@@QEAAXH@Z 
?MarkConstrainedEdge@Triangle@p2t@@QEAAXPEAUPoint@2@0@Z 
?MarkNeighbor@Triangle@p2t@@QEAAXAEAV12@@Z 
?MarkNeighbor@Triangle@p2t@@QEAAXPEAUPoint@2@0PEAV12@@Z 
?MaxLenHint@Importer@Assimp@@2IB 
?MergeBones@SceneCombiner@Assimp@@SAXPEAUaiMesh@@V?$_Vector_const_iterator@V?$_Vector_val@U?$_Simple_types@PEAUaiMesh@@@std@@@std@@@std@@1@Z 
?MergeMaterials@SceneCombiner@Assimp@@SAXPEAPEAUaiMaterial@@V?$_Vector_const_iterator@V?$_Vector_val@U?$_Simple_types@PEAUaiMaterial@@@std@@@std@@@std@@1@Z 
?MergeMeshes@SceneCombiner@Assimp@@SAXPEAPEAUaiMesh@@IV?$_Vector_const_iterator@V?$_Vector_val@U?$_Simple_types@PEAUaiMesh@@@std@@@std@@@std@@1@Z 
?MergeScenes@SceneCombiner@Assimp@@SAXPEAPEAUaiScene@@AEAV?$vector@PEAUaiScene@@V?$allocator@PEAUaiScene@@@std@@@std@@I@Z 
?MergeScenes@SceneCombiner@Assimp@@SAXPEAPEAUaiScene@@PEAU3@AEAV?$vector@UAttachmentInfo@Assimp@@V?$allocator@UAttachmentInfo@Assimp@@@std@@@std@@I@Z 
?NeighborAcross@Triangle@p2t@@QEAAPEAV12@AEBUPoint@2@@Z 
?NeighborCCW@Triangle@p2t@@QEAAPEAV12@AEBUPoint@2@@Z 
?NeighborCW@Triangle@p2t@@QEAAPEAV12@AEBUPoint@2@@Z 
?Normalize@Point@p2t@@QEAANXZ 
?OffsetNodeMeshIndices@SceneCombiner@Assimp@@SAXPEAUaiNode@@I@Z 
?OnDebug@DefaultLogger@Assimp@@EEAAXPEBD@Z 
?OnDebug@NullLogger@Assimp@@UEAAXPEBD@Z 
?OnError@DefaultLogger@Assimp@@EEAAXPEBD@Z 
?OnError@NullLogger@Assimp@@UEAAXPEBD@Z 
?OnInfo@DefaultLogger@Assimp@@EEAAXPEBD@Z 
?OnInfo@NullLogger@Assimp@@UEAAXPEBD@Z 
?OnVerboseDebug@DefaultLogger@Assimp@@EEAAXPEBD@Z 
?OnVerboseDebug@NullLogger@Assimp@@UEAAXPEBD@Z 
?OnWarn@DefaultLogger@Assimp@@EEAAXPEBD@Z 
?OnWarn@NullLogger@Assimp@@UEAAXPEBD@Z 
?Open@DefaultIOSystem@Assimp@@UEAAPEAVIOStream@2@PEBD0@Z 
?Open@IOSystem@Assimp@@QEAAPEAVIOStream@2@AEBV?$basic_string@DU?$char_traits@D@std@@V?$allocator@D@2@@std@@0@Z 
?OppositePoint@Triangle@p2t@@QEAAPEAUPoint@2@AEAV12@AEBU32@@Z 
?ParseFile@SMDImporter@Assimp@@IEAAXXZ 
?ParseFloat@SMDImporter@Assimp@@IEAA_NPEBDPEAPEBD0AEAM@Z 
?ParseNodeInfo@SMDImporter@Assimp@@IEAAXPEBDPEAPEBD0@Z 
?ParseNodesSection@SMDImporter@Assimp@@IEAAXPEBDPEAPEBD0@Z 
?ParseSignedInt@SMDImporter@Assimp@@IEAA_NPEBDPEAPEBD0AEAH@Z 
?ParseSkeletonElement@SMDImporter@Assimp@@IEAAXPEBDPEAPEBD0H@Z 
?ParseSkeletonSection@SMDImporter@Assimp@@IEAAXPEBDPEAPEBD0@Z 
?ParseTriangle@SMDImporter@Assimp@@IEAAXPEBDPEAPEBD0@Z 
?ParseTrianglesSection@SMDImporter@Assimp@@IEAAXPEBDPEAPEBD0@Z 
?ParseUnsignedInt@SMDImporter@Assimp@@IEAA_NPEBDPEAPEBD0AEAI@Z 
?ParseVASection@SMDImporter@Assimp@@IEAAXPEBDPEAPEBD0@Z 
?ParseVertex@SMDImporter@Assimp@@IEAAXPEBDPEAPEBD0AEAUVertex@SMD@2@_N@Z 
?Pimpl@Importer@Assimp@@QEAAPEAVImporterPimpl@2@XZ 
?Pimpl@Importer@Assimp@@QEBAPEBVImporterPimpl@2@XZ 
?PlaneIntersect@GeometryUtils@Assimp@@SA_NAEBUaiRay@@AEBV?$aiVector3t@M@@1AEAV4@@Z 
?PointCCW@Triangle@p2t@@QEAAPEAUPoint@2@AEBU32@@Z 
?PointCW@Triangle@p2t@@QEAAPEAUPoint@2@AEBU32@@Z 
?PopDirectory@IOSystem@Assimp@@UEAA_NXZ 
?Prepare@SGSpatialSort@Assimp@@QEAAXXZ 
?ProcessAnimation@FindInvalidDataProcess@Assimp@@QEAAXPEAUaiAnimation@@@Z 
?ProcessAnimation@ScenePreprocessor@Assimp@@IEAAXPEAUaiAnimation@@@Z 
?ProcessAnimationChannel@FindInvalidDataProcess@Assimp@@QEAAXPEAUaiNodeAnim@@@Z 
?ProcessMesh@CalcTangentsProcess@Assimp@@IEAA_NPEAUaiMesh@@I@Z 
?ProcessMesh@FindInvalidDataProcess@Assimp@@QEAAHPEAUaiMesh@@@Z 
?ProcessMesh@JoinVerticesProcess@Assimp@@QEAAHPEAUaiMesh@@I@Z 
?ProcessMesh@LimitBoneWeightsProcess@Assimp@@QEAAXPEAUaiMesh@@@Z 
?ProcessMesh@RemoveVCProcess@Assimp@@AEAA_NPEAUaiMesh@@@Z 
?ProcessMesh@ScenePreprocessor@Assimp@@IEAAXPEAUaiMesh@@@Z 
?ProcessScene@ScenePreprocessor@Assimp@@QEAAXXZ 
?PushDirectory@IOSystem@Assimp@@UEAA_NAEBV?$basic_string@DU?$char_traits@D@std@@V?$allocator@D@2@@std@@@Z 
?Read@DefaultIOStream@Assimp@@UEAA_KPEAX_K1@Z 
?ReadFile@BaseImporter@Assimp@@QEAAPEAUaiScene@@PEAVImporter@2@AEBV?$basic_string@DU?$char_traits@D@std@@V?$allocator@D@2@@std@@PEAVIOSystem@2@@Z 
?ReadFile@Importer@Assimp@@QEAAPEBUaiScene@@AEBV?$basic_string@DU?$char_traits@D@std@@V?$allocator@D@2@@std@@I@Z 
?ReadFile@Importer@Assimp@@QEAAPEBUaiScene@@PEBDI@Z 
?ReadFileFromMemory@Importer@Assimp@@QEAAPEBUaiScene@@PEBX_KIPEBD@Z 
?ReadSmd@SMDImporter@Assimp@@IEAAXAEBV?$basic_string@DU?$char_traits@D@std@@V?$allocator@D@2@@std@@PEAVIOSystem@2@@Z 
?RegisterExporter@Exporter@Assimp@@QEAA?AW4aiReturn@@AEBUExportFormatEntry@12@@Z 
?RegisterLoader@Importer@Assimp@@QEAA?AW4aiReturn@@PEAVBaseImporter@2@@Z 
?RegisterPPStep@Importer@Assimp@@QEAA?AW4aiReturn@@PEAVBaseProcess@2@@Z 
?RemoveLineComments@CommentRemover@Assimp@@SAXPEBDPEADD@Z 
?RemoveMultiLineComments@CommentRemover@Assimp@@SAXPEBD0PEADD@Z 
?RemoveProperty@aiMaterial@@QEAA?AW4aiReturn@@PEBDII@Z 
?RequireVerboseFormat@BaseProcess@Assimp@@UEBA_NXZ 
?Save@Bitmap@Assimp@@SA_NPEAUaiTexture@@PEAVIOStream@2@@Z 
?SearchFileHeaderForToken@BaseImporter@Assimp@@SA_NPEAVIOSystem@2@AEBV?$basic_string@DU?$char_traits@D@std@@V?$allocator@D@2@@std@@PEAPEBD_KI_N4@Z 
?Seek@DefaultIOStream@Assimp@@UEAA?AW4aiReturn@@_KW4aiOrigin@@@Z 
?SetConstrainedEdgeCCW@Triangle@p2t@@QEAAXAEBUPoint@2@_N@Z 
?SetConstrainedEdgeCW@Triangle@p2t@@QEAAXAEBUPoint@2@_N@Z 
?SetDeleteFlags@RemoveVCProcess@Assimp@@QEAAXI@Z 
?SetDelunayEdgeCCW@Triangle@p2t@@QEAAXAEBUPoint@2@_N@Z 
?SetDelunayEdgeCW@Triangle@p2t@@QEAAXAEBUPoint@2@_N@Z 
?SetExtraVerbose@Importer@Assimp@@QEAAX_N@Z 
?SetFileScale@BaseImporter@Assimp@@QEAAXN@Z 
?SetFixedMaterialsString@RemoveRedundantMatsProcess@Assimp@@QEAAXAEBV?$basic_string@DU?$char_traits@D@std@@V?$allocator@D@2@@std@@@Z 
?SetIOHandler@Exporter@Assimp@@QEAAXPEAVIOSystem@2@@Z 
?SetIOHandler@Importer@Assimp@@QEAAXPEAVIOSystem@2@@Z 
?SetLimit@SplitLargeMeshesProcess_Triangle@Assimp@@QEAAXI@Z 
?SetLimit@SplitLargeMeshesProcess_Vertex@Assimp@@QEAAXI@Z 
?SetMaxSmoothAngle@CalcTangentsProcess@Assimp@@QEAAXM@Z 
?SetMaxSmoothAngle@GenVertexNormalsProcess@Assimp@@QEAAXM@Z 
?SetProgressHandler@Exporter@Assimp@@QEAAXPEAVProgressHandler@2@@Z 
?SetProgressHandler@Importer@Assimp@@QEAAXPEAVProgressHandler@2@@Z 
?SetPropertyBool@ExportProperties@Assimp@@QEAA_NPEBD_N@Z 
?SetPropertyBool@Importer@Assimp@@QEAA_NPEBD_N@Z 
?SetPropertyCallback@ExportProperties@Assimp@@QEAA_NPEBDAEBV?$function@$$A6APEAXPEAX@Z@std@@@Z 
?SetPropertyFloat@ExportProperties@Assimp@@QEAA_NPEBDM@Z 
?SetPropertyFloat@Importer@Assimp@@QEAA_NPEBDM@Z 
?SetPropertyInteger@ExportProperties@Assimp@@QEAA_NPEBDH@Z 
?SetPropertyInteger@Importer@Assimp@@QEAA_NPEBDH@Z 
?SetPropertyMatrix@ExportProperties@Assimp@@QEAA_NPEBDAEBV?$aiMatrix4x4t@M@@@Z 
?SetPropertyMatrix@Importer@Assimp@@QEAA_NPEBDAEBV?$aiMatrix4x4t@M@@@Z 
?SetPropertyPointer@Importer@Assimp@@QEAA_NPEBDPEAX@Z 
?SetPropertyString@ExportProperties@Assimp@@QEAA_NPEBDAEBV?$basic_string@DU?$char_traits@D@std@@V?$allocator@D@2@@std@@@Z 
?SetPropertyString@Importer@Assimp@@QEAA_NPEBDAEBV?$basic_string@DU?$char_traits@D@std@@V?$allocator@D@2@@std@@@Z 
?SetScene@ScenePreprocessor@Assimp@@QEAAXPEAUaiScene@@@Z 
?SetSharedData@BaseProcess@Assimp@@QEAAXPEAVSharedPostProcessInfo@2@@Z 
?SetupProperties@ArmaturePopulate@Assimp@@UEAAXPEBVImporter@2@@Z 
?SetupProperties@BaseImporter@Assimp@@UEAAXPEBVImporter@2@@Z 
?SetupProperties@BaseProcess@Assimp@@UEAAXPEBVImporter@2@@Z 
?SetupProperties@CalcTangentsProcess@Assimp@@UEAAXPEBVImporter@2@@Z 
?SetupProperties@EmbedTexturesProcess@Assimp@@UEAAXPEBVImporter@2@@Z 
?SetupProperties@FindDegeneratesProcess@Assimp@@UEAAXPEBVImporter@2@@Z 
?SetupProperties@FindInvalidDataProcess@Assimp@@UEAAXPEBVImporter@2@@Z 
?SetupProperties@GenVertexNormalsProcess@Assimp@@UEAAXPEBVImporter@2@@Z 
?SetupProperties@LimitBoneWeightsProcess@Assimp@@UEAAXPEBVImporter@2@@Z 
?SetupProperties@PretransformVertices@Assimp@@UEAAXPEBVImporter@2@@Z 
?SetupProperties@RemoveRedundantMatsProcess@Assimp@@UEAAXPEBVImporter@2@@Z 
?SetupProperties@RemoveVCProcess@Assimp@@UEAAXPEBVImporter@2@@Z 
?SetupProperties@SMDImporter@Assimp@@UEAAXPEBVImporter@2@@Z 
?SetupProperties@ScaleProcess@Assimp@@UEAAXPEBVImporter@2@@Z 
?SetupProperties@SortByPTypeProcess@Assimp@@UEAAXPEBVImporter@2@@Z 
?SetupProperties@SplitLargeMeshesProcess_Triangle@Assimp@@UEAAXPEBVImporter@2@@Z 
?SetupProperties@SplitLargeMeshesProcess_Vertex@Assimp@@UEAAXPEBVImporter@2@@Z 
?SimpleExtensionCheck@BaseImporter@Assimp@@SA_NAEBV?$basic_string@DU?$char_traits@D@std@@V?$allocator@D@2@@std@@PEBD111@Z 
?SkipLine@SMDImporter@Assimp@@IEAA_NPEBDPEAPEBD0@Z 
?SkipSpacesAndLineEnd@SMDImporter@Assimp@@IEAA_NPEBDPEAPEBD0@Z 
?SplitMesh@SplitLargeMeshesProcess_Triangle@Assimp@@QEAAXIPEAUaiMesh@@AEAV?$vector@U?$pair@PEAUaiMesh@@I@std@@V?$allocator@U?$pair@PEAUaiMesh@@I@std@@@2@@std@@@Z 
?SplitMesh@SplitLargeMeshesProcess_Vertex@Assimp@@QEAAXIPEAUaiMesh@@AEAV?$vector@U?$pair@PEAUaiMesh@@I@std@@V?$allocator@U?$pair@PEAUaiMesh@@I@std@@@2@@std@@@Z 
?StackSize@IOSystem@Assimp@@UEBA_KXZ 
?StdLogCallback@OpenDDLParser@ODDLParser@@SA?AV?$function@$$A6AXW4LogSeverity@ODDLParser@@AEBV?$basic_string@DU?$char_traits@D@std@@V?$allocator@D@2@@std@@@Z@std@@PEAU_iobuf@@@Z 
?Tell@DefaultIOStream@Assimp@@UEBA_KXZ 
?TextFileToBuffer@BaseImporter@Assimp@@SAXPEAVIOStream@2@AEAV?$vector@DV?$allocator@D@std@@@std@@W4TextFileMode@12@@Z 
?Triangulate@CDT@p2t@@QEAAXXZ 
?TriangulateMesh@TriangulateProcess@Assimp@@QEAA_NPEAUaiMesh@@@Z 
?UnregisterExporter@Exporter@Assimp@@QEAAXPEBD@Z 
?UnregisterLoader@Importer@Assimp@@QEAA?AW4aiReturn@@PEAVBaseImporter@2@@Z 
?UnregisterPPStep@Importer@Assimp@@QEAA?AW4aiReturn@@PEAVBaseProcess@2@@Z 
?UpdateFileRead@ProgressHandler@Assimp@@UEAAXHH@Z 
?UpdateFileWrite@ProgressHandler@Assimp@@UEAAXHH@Z 
?UpdateImporterScale@BaseImporter@Assimp@@AEAAXPEAVImporter@2@@Z 
?UpdateNode@SplitLargeMeshesProcess_Triangle@Assimp@@SAXPEAUaiNode@@AEBV?$vector@U?$pair@PEAUaiMesh@@I@std@@V?$allocator@U?$pair@PEAUaiMesh@@I@std@@@2@@std@@@Z 
?UpdatePostProcess@ProgressHandler@Assimp@@UEAAXHH@Z 
?ValidateFlags@Importer@Assimp@@QEBA_NI@Z 
?Write@DefaultIOStream@Assimp@@UEAA_KPEBX_K1@Z 
?WriteDIB@Bitmap@Assimp@@KAXAEAUDIB@12@PEAVIOStream@2@@Z 
?WriteData@Bitmap@Assimp@@KAXPEAUaiTexture@@PEAVIOStream@2@@Z 
?WriteHeader@Bitmap@Assimp@@KAXAEAUHeader@12@PEAVIOStream@2@@Z 
?WriteToStreams@DefaultLogger@Assimp@@AEAAXPEBDW4ErrorSeverity@Logger@2@@Z 
?_Iter_cat@std@@YA?AUbidirectional_iterator_tag@1@AEBVxml_attribute_iterator@pugi@@@Z 
?_Iter_cat@std@@YA?AUbidirectional_iterator_tag@1@AEBVxml_named_node_iterator@pugi@@@Z 
?_Iter_cat@std@@YA?AUbidirectional_iterator_tag@1@AEBVxml_node_iterator@pugi@@@Z 
?_assign@xpath_node_set@pugi@@AEAAXPEBVxpath_node@2@0W4type_t@12@@Z 
?_assign@xpath_variable_set@pugi@@AEAAXAEBV12@@Z 
?_clone@xpath_variable_set@pugi@@CA_NPEAVxpath_variable@2@PEAPEAV32@@Z 
?_create@xml_document@pugi@@AEAAXXZ 
?_data@xml_text@pugi@@AEBAPEAUxml_node_struct@2@XZ 
?_data_new@xml_text@pugi@@AEAAPEAUxml_node_struct@2@XZ 
?_destroy@xml_document@pugi@@AEAAXXZ 
?_destroy@xpath_variable_set@pugi@@CAXPEAVxpath_variable@2@@Z 
?_find@xpath_variable_set@pugi@@AEBAPEAVxpath_variable@2@PEBD@Z 
?_move@xml_document@pugi@@AEAAXAEAV12@@Z 
?_move@xpath_node_set@pugi@@AEAAXAEAV12@@Z 
?_swap@xpath_variable_set@pugi@@AEAAXAEAV12@@Z 
?absolutePath@DefaultIOSystem@Assimp@@SA?AV?$basic_string@DU?$char_traits@D@std@@V?$allocator@D@2@@std@@AEBV34@@Z 
?add@xpath_variable_set@pugi@@QEAAPEAVxpath_variable@2@PEBDW4xpath_value_type@2@@Z 
?addChildren@aiNode@@QEAAXIPEAPEAU1@@Z 
?addTexture@EmbedTexturesProcess@Assimp@@AEBA_NPEAUaiScene@@AEBV?$basic_string@DU?$char_traits@D@std@@V?$allocator@D@2@@std@@@Z 
?aiApplyCustomizedPostProcessing@@YAPEBUaiScene@@PEBU1@PEAVBaseProcess@Assimp@@_N@Z 
?aiAssertViolation@Assimp@@YAXPEBD0H@Z 
?aiCreateAnimMesh@Assimp@@YAPEAUaiAnimMesh@@PEBUaiMesh@@_N1111@Z 
?allocPrimData@ValueAllocator@ODDLParser@@SAPEAVValue@2@W4ValueType@32@_K@Z 
?append_attribute@xml_node@pugi@@QEAA?AVxml_attribute@2@PEBD@Z 
?append_attribute@xml_node@pugi@@QEAA?AVxml_attribute@2@V?$basic_string_view@DU?$char_traits@D@std@@@std@@@Z 
?append_buffer@xml_node@pugi@@QEAA?AUxml_parse_result@2@PEBX_KIW4xml_encoding@2@@Z 
?append_child@xml_node@pugi@@QEAA?AV12@PEBD@Z 
?append_child@xml_node@pugi@@QEAA?AV12@V?$basic_string_view@DU?$char_traits@D@std@@@std@@@Z 
?append_child@xml_node@pugi@@QEAA?AV12@W4xml_node_type@2@@Z 
?append_copy@xml_node@pugi@@QEAA?AV12@AEBV12@@Z 
?append_copy@xml_node@pugi@@QEAA?AVxml_attribute@2@AEBV32@@Z 
?append_move@xml_node@pugi@@QEAA?AV12@AEBV12@@Z 
?applyScaling@ScaleProcess@Assimp@@AEAAXPEAUaiNode@@@Z 
?as_bool@xml_attribute@pugi@@QEBA_N_N@Z 
?as_bool@xml_text@pugi@@QEBA_N_N@Z 
?as_double@xml_attribute@pugi@@QEBANN@Z 
?as_double@xml_text@pugi@@QEBANN@Z 
?as_float@xml_attribute@pugi@@QEBAMM@Z 
?as_float@xml_text@pugi@@QEBAMM@Z 
?as_int@xml_attribute@pugi@@QEBAHH@Z 
?as_int@xml_text@pugi@@QEBAHH@Z 
?as_llong@xml_attribute@pugi@@QEBA_J_J@Z 
?as_llong@xml_text@pugi@@QEBA_J_J@Z 
?as_string@xml_attribute@pugi@@QEBAPEBDPEBD@Z 
?as_string@xml_text@pugi@@QEBAPEBDPEBD@Z 
?as_uint@xml_attribute@pugi@@QEBAII@Z 
?as_uint@xml_text@pugi@@QEBAII@Z 
?as_ullong@xml_attribute@pugi@@QEBA_K_K@Z 
?as_ullong@xml_text@pugi@@QEBA_K_K@Z 
?as_utf8@pugi@@YA?AV?$basic_string@DU?$char_traits@D@std@@V?$allocator@D@2@@std@@AEBV?$basic_string@_WU?$char_traits@_W@std@@V?$allocator@_W@2@@3@@Z 
?as_utf8@pugi@@YA?AV?$basic_string@DU?$char_traits@D@std@@V?$allocator@D@2@@std@@PEB_W@Z 
?as_wide@pugi@@YA?AV?$basic_string@_WU?$char_traits@_W@std@@V?$allocator@_W@2@@std@@AEBV?$basic_string@DU?$char_traits@D@std@@V?$allocator@D@2@@3@@Z 
?as_wide@pugi@@YA?AV?$basic_string@_WU?$char_traits@_W@std@@V?$allocator@_W@2@@std@@PEBD@Z 
?attachParent@DDLNode@ODDLParser@@QEAAXPEAV12@@Z 
?attachStream@DefaultLogger@Assimp@@UEAA_NPEAVLogStream@2@I@Z 
?attachStream@NullLogger@Assimp@@UEAA_NPEAVLogStream@2@I@Z 
?attribute@xml_node@pugi@@QEBA?AVxml_attribute@2@PEBD@Z 
?attribute@xml_node@pugi@@QEBA?AVxml_attribute@2@PEBDAEAV32@@Z 
?attribute@xml_node@pugi@@QEBA?AVxml_attribute@2@V?$basic_string_view@DU?$char_traits@D@std@@@std@@@Z 
?attribute@xml_node@pugi@@QEBA?AVxml_attribute@2@V?$basic_string_view@DU?$char_traits@D@std@@@std@@AEAV32@@Z 
?attribute@xpath_node@pugi@@QEBA?AVxml_attribute@2@XZ 
?attributes@xml_node@pugi@@QEBA?AV?$xml_object_range@Vxml_attribute_iterator@pugi@@@2@XZ 
?attributes_begin@xml_node@pugi@@QEBA?AVxml_attribute_iterator@2@XZ 
?attributes_end@xml_node@pugi@@QEBA?AVxml_attribute_iterator@2@XZ 
?begin@xml_node@pugi@@QEBA?AVxml_node_iterator@2@XZ 
?begin@xml_tree_walker@pugi@@UEAA_NAEAVxml_node@2@@Z 
?begin@xpath_node_set@pugi@@QEBAPEBVxpath_node@2@XZ 
?calculateAreaOfTriangle@GeometryUtils@Assimp@@SAMAEBUaiFace@@PEAUaiMesh@@@Z 
?child@xml_node@pugi@@QEBA?AV12@PEBD@Z 
?child@xml_node@pugi@@QEBA?AV12@V?$basic_string_view@DU?$char_traits@D@std@@@std@@@Z 
?child_value@xml_node@pugi@@QEBAPEBDPEBD@Z 
?child_value@xml_node@pugi@@QEBAPEBDXZ 
?children@xml_node@pugi@@QEBA?AV?$xml_object_range@Vxml_named_node_iterator@pugi@@@2@PEBD@Z 
?children@xml_node@pugi@@QEBA?AV?$xml_object_range@Vxml_node_iterator@pugi@@@2@XZ 
?clear@Context@ODDLParser@@QEAAXXZ 
?clear@OpenDDLParser@ODDLParser@@QEAAXXZ 
?clear@Text@ODDLParser@@QEAAXXZ 
?close@IOStreamBase@ODDLParser@@UEAA_NXZ 
?completeBaseName@DefaultIOSystem@Assimp@@SA?AV?$basic_string@DU?$char_traits@D@std@@V?$allocator@D@2@@std@@AEBV34@@Z 
?copyNextWord@ObjFileParser@Assimp@@IEAAXPEAD_K@Z 
?create@DDLNode@ODDLParser@@SAPEAV12@AEBV?$basic_string@DU?$char_traits@D@std@@V?$allocator@D@2@@std@@0PEAV12@@Z 
?create@DefaultLogger@Assimp@@SAPEAVLogger@2@PEBDW4LogSeverity@32@IPEAVIOSystem@2@@Z 
?createDefaultStream@LogStream@Assimp@@SAPEAV12@W4aiDefaultLogStream@@PEBDPEAVIOSystem@2@@Z 
?createMesh@ObjFileParser@Assimp@@IEAAXAEBV?$basic_string@DU?$char_traits@D@std@@V?$allocator@D@2@@std@@@Z 
?createObject@ObjFileParser@Assimp@@IEAAXAEBV?$basic_string@DU?$char_traits@D@std@@V?$allocator@D@2@@std@@@Z 
?data@xml_text@pugi@@QEBA?AVxml_node@2@XZ 
?debug@Logger@Assimp@@QEAAXPEBD@Z 
?defaultAiAssertHandler@Assimp@@YAXPEBD0H@Z 
?depth@xml_tree_walker@pugi@@IEBAHXZ 
?description@xml_parse_result@pugi@@QEBAPEBDXZ 
?description@xpath_parse_result@pugi@@QEBAPEBDXZ 
?detachParent@DDLNode@ODDLParser@@QEAAXXZ 
?detachStream@DefaultLogger@Assimp@@UEAA_NPEAVLogStream@2@I@Z 
?detachStream@NullLogger@Assimp@@UEAA_NPEAVLogStream@2@I@Z 
?distance3D@GeometryUtils@Assimp@@SAMAEBV?$aiVector3t@M@@0@Z 
?document_element@xml_document@pugi@@QEBA?AVxml_node@2@XZ 
?dump@DDLNode@ODDLParser@@QEAAXAEAVIOStreamBase@2@@Z 
?dump@Value@ODDLParser@@QEAAXAEAVIOStreamBase@2@@Z 
?empty@xml_attribute@pugi@@QEBA_NXZ 
?empty@xml_node@pugi@@QEBA_NXZ 
?empty@xml_text@pugi@@QEBA_NXZ 
?empty@xpath_node_set@pugi@@QEBA_NXZ 
?end@xml_node@pugi@@QEBA?AVxml_node_iterator@2@XZ 
?end@xml_tree_walker@pugi@@UEAA_NAEAVxml_node@2@@Z 
?end@xpath_node_set@pugi@@QEBAPEBVxpath_node@2@XZ 
?error@Logger@Assimp@@QEAAXPEBD@Z 
?evaluate_boolean@xpath_query@pugi@@QEBA_NAEBVxpath_node@2@@Z 
?evaluate_node@xpath_query@pugi@@QEBA?AVxpath_node@2@AEBV32@@Z 
?evaluate_node_set@xpath_query@pugi@@QEBA?AVxpath_node_set@2@AEBVxpath_node@2@@Z 
?evaluate_number@xpath_query@pugi@@QEBANAEBVxpath_node@2@@Z 
?evaluate_string@xpath_query@pugi@@QEBA?AV?$basic_string@DU?$char_traits@D@std@@V?$allocator@D@2@@std@@AEBVxpath_node@2@@Z 
?evaluate_string@xpath_query@pugi@@QEBA_KPEAD_KAEBVxpath_node@2@@Z 
?exportContext@OpenDDLExport@ODDLParser@@QEAA_NPEAUContext@2@AEBV?$basic_string@DU?$char_traits@D@std@@V?$allocator@D@2@@std@@@Z 
?exportContext@OpenDDLParser@ODDLParser@@QEAA_NPEAUContext@2@AEBV?$basic_string@DU?$char_traits@D@std@@V?$allocator@D@2@@std@@@Z 
?fileName@DefaultIOSystem@Assimp@@SA?AV?$basic_string@DU?$char_traits@D@std@@V?$allocator@D@2@@std@@AEBV34@@Z 
?findBone@aiScene@@QEBAPEAUaiBone@@AEBUaiString@@@Z 
?findBoneNode@aiNode@@QEBAPEBU1@PEBUaiBone@@@Z 
?findPropertyByName@DDLNode@ODDLParser@@QEAAPEAUProperty@2@AEBV?$basic_string@DU?$char_traits@D@std@@V?$allocator@D@2@@std@@@Z 
?find_child_by_attribute@xml_node@pugi@@QEBA?AV12@PEBD00@Z 
?find_child_by_attribute@xml_node@pugi@@QEBA?AV12@PEBD0@Z 
?first@xpath_node_set@pugi@@QEBA?AVxpath_node@2@XZ 
?first_attribute@xml_node@pugi@@QEBA?AVxml_attribute@2@XZ 
?first_child@xml_node@pugi@@QEBA?AV12@XZ 
?first_element_by_path@xml_node@pugi@@QEBA?AV12@PEBDD@Z 
?format@StreamFormatterBase@ODDLParser@@UEAA?AV?$basic_string@DU?$char_traits@D@std@@V?$allocator@D@2@@std@@AEBV34@@Z 
?formatMessage@Logger@Assimp@@IEAA?AV?$basic_string@DU?$char_traits@D@std@@V?$allocator@D@2@@std@@V?$basic_formatter@DU?$char_traits@D@std@@V?$allocator@D@2@@Formatter@2@@Z 
?get@DefaultLogger@Assimp@@SAPEAVLogger@2@XZ 
?get@xml_text@pugi@@QEBAPEBDXZ 
?get@xpath_variable_set@pugi@@QEAAPEAVxpath_variable@2@PEBD@Z 
?get@xpath_variable_set@pugi@@QEBAPEBVxpath_variable@2@PEBD@Z 
?getBool@Value@ODDLParser@@QEAA_NXZ 
?getBuffer@OpenDDLParser@ODDLParser@@QEBAPEBDXZ 
?getBufferSize@OpenDDLParser@ODDLParser@@QEBA_KXZ 
?getChildNodeList@DDLNode@ODDLParser@@QEBAAEBV?$vector@PEAVDDLNode@ODDLParser@@V?$allocator@PEAVDDLNode@ODDLParser@@@std@@@std@@XZ 
?getComment@ObjFileParser@Assimp@@IEAAXXZ 
?getContext@OpenDDLParser@ODDLParser@@QEBAPEAUContext@2@XZ 
?getDataArrayList@DDLNode@ODDLParser@@QEBAPEAUDataArrayList@2@XZ 
?getDouble@Value@ODDLParser@@QEBANXZ 
?getFace@ObjFileParser@Assimp@@IEAAXW4aiPrimitiveType@@@Z 
?getFloat@Value@ODDLParser@@QEBAMXZ 
?getGroupName@ObjFileParser@Assimp@@IEAAXXZ 
?getGroupNumber@ObjFileParser@Assimp@@IEAAXXZ 
?getGroupNumberAndResolution@ObjFileParser@Assimp@@IEAAXXZ 
?getHomogeneousVector3@ObjFileParser@Assimp@@IEAAXAEAV?$vector@V?$aiVector3t@M@@V?$allocator@V?$aiVector3t@M@@@std@@@std@@@Z 
?getInt16@Value@ODDLParser@@QEAAFXZ 
?getInt32@Value@ODDLParser@@QEAAHXZ 
?getInt64@Value@ODDLParser@@QEAA_JXZ 
?getInt8@Value@ODDLParser@@QEAACXZ 
?getLogCallback@OpenDDLParser@ODDLParser@@QEBA?AV?$function@$$A6AXW4LogSeverity@ODDLParser@@AEBV?$basic_string@DU?$char_traits@D@std@@V?$allocator@D@2@@std@@@Z@std@@XZ 
?getLogSeverity@Logger@Assimp@@QEBA?AW4LogSeverity@12@XZ 
?getMaterialDesc@ObjFileParser@Assimp@@IEAAXXZ 
?getMaterialIndex@ObjFileParser@Assimp@@IEAAHAEBV?$basic_string@DU?$char_traits@D@std@@V?$allocator@D@2@@std@@@Z 
?getMaterialLib@ObjFileParser@Assimp@@IEAAXXZ 
?getName@DDLNode@ODDLParser@@QEBAAEBV?$basic_string@DU?$char_traits@D@std@@V?$allocator@D@2@@std@@XZ 
?getNewMaterial@ObjFileParser@Assimp@@IEAAXXZ 
?getNext@Iterator@Value@ODDLParser@@QEAAPEAV23@XZ 
?getNext@Value@ODDLParser@@QEBAPEAV12@XZ 
?getNumComponentsInDataDefinition@ObjFileParser@Assimp@@IEAA_KXZ 
?getObjectName@ObjFileParser@Assimp@@IEAAXXZ 
?getOsSeparator@DefaultIOSystem@Assimp@@UEBADXZ 
?getParent@DDLNode@ODDLParser@@QEBAPEAV12@XZ 
?getProperties@DDLNode@ODDLParser@@QEBAPEAUProperty@2@XZ 
?getRef@Value@ODDLParser@@QEBAPEAUReference@2@XZ 
?getReferences@DDLNode@ODDLParser@@QEBAPEAUReference@2@XZ 
?getRoot@OpenDDLParser@ODDLParser@@QEBAPEAVDDLNode@2@XZ 
?getScale@ScaleProcess@Assimp@@QEBAMXZ 
?getString@Value@ODDLParser@@QEBAPEBDXZ 
?getTexCoordVector@ObjFileParser@Assimp@@IEAA_KAEAV?$vector@V?$aiVector3t@M@@V?$allocator@V?$aiVector3t@M@@@std@@@std@@@Z 
?getTwoVectors3@ObjFileParser@Assimp@@IEAAXAEAV?$vector@V?$aiVector3t@M@@V?$allocator@V?$aiVector3t@M@@@std@@@std@@0@Z 
?getType@DDLNode@ODDLParser@@QEBAAEBV?$basic_string@DU?$char_traits@D@std@@V?$allocator@D@2@@std@@XZ 
?getTypeToken@ODDLParser@@YAPEBDW4ValueType@Value@1@@Z 
?getUnsignedInt16@Value@ODDLParser@@QEBAGXZ 
?getUnsignedInt32@Value@ODDLParser@@QEBAIXZ 
?getUnsignedInt64@Value@ODDLParser@@QEBA_KXZ 
?getUnsignedInt8@Value@ODDLParser@@QEBAEXZ 
?getValidation@BatchLoader@Assimp@@QEBA_NXZ 
?getValue@DDLNode@ODDLParser@@QEBAPEAVValue@2@XZ 
?getVector2@ObjFileParser@Assimp@@IEAAXAEAV?$vector@V?$aiVector2t@M@@V?$allocator@V?$aiVector2t@M@@@std@@@std@@@Z 
?getVector3@ObjFileParser@Assimp@@IEAAXAEAV?$vector@V?$aiVector3t@M@@V?$allocator@V?$aiVector3t@M@@@std@@@std@@@Z 
?getVersion@OpenDDLParser@ODDLParser@@SAPEBDXZ 
?get_boolean@xpath_variable@pugi@@QEBA_NXZ 
?get_memory_allocation_function@pugi@@YAP6APEAX_K@ZXZ 
?get_memory_deallocation_function@pugi@@YAP6AXPEAX@ZXZ 
?get_node_set@xpath_variable@pugi@@QEBAAEBVxpath_node_set@2@XZ 
?get_number@xpath_variable@pugi@@QEBANXZ 
?get_string@xpath_variable@pugi@@QEBAPEBDXZ 
?handleNode@OpenDDLExport@ODDLParser@@QEAA_NPEAVDDLNode@2@@Z 
?hasNext@Iterator@Value@ODDLParser@@QEBA_NXZ 
?hasProperties@DDLNode@ODDLParser@@QEBA_NXZ 
?hasProperty@DDLNode@ODDLParser@@QEAA_NAEBV?$basic_string@DU?$char_traits@D@std@@V?$allocator@D@2@@std@@@Z 
?hash_value@xml_attribute@pugi@@QEBA_KXZ 
?hash_value@xml_node@pugi@@QEBA_KXZ 
?heron@GeometryUtils@Assimp@@SAMMMM@Z 
?info@Logger@Assimp@@QEAAXPEBD@Z 
?insert_attribute_after@xml_node@pugi@@QEAA?AVxml_attribute@2@PEBDAEBV32@@Z 
?insert_attribute_after@xml_node@pugi@@QEAA?AVxml_attribute@2@V?$basic_string_view@DU?$char_traits@D@std@@@std@@AEBV32@@Z 
?insert_attribute_before@xml_node@pugi@@QEAA?AVxml_attribute@2@PEBDAEBV32@@Z 
?insert_attribute_before@xml_node@pugi@@QEAA?AVxml_attribute@2@V?$basic_string_view@DU?$char_traits@D@std@@@std@@AEBV32@@Z 
?insert_child_after@xml_node@pugi@@QEAA?AV12@PEBDAEBV12@@Z 
?insert_child_after@xml_node@pugi@@QEAA?AV12@V?$basic_string_view@DU?$char_traits@D@std@@@std@@AEBV12@@Z 
?insert_child_after@xml_node@pugi@@QEAA?AV12@W4xml_node_type@2@AEBV12@@Z 
?insert_child_before@xml_node@pugi@@QEAA?AV12@PEBDAEBV12@@Z 
?insert_child_before@xml_node@pugi@@QEAA?AV12@V?$basic_string_view@DU?$char_traits@D@std@@@std@@AEBV12@@Z 
?insert_child_before@xml_node@pugi@@QEAA?AV12@W4xml_node_type@2@AEBV12@@Z 
?insert_copy_after@xml_node@pugi@@QEAA?AV12@AEBV12@0@Z 
?insert_copy_after@xml_node@pugi@@QEAA?AVxml_attribute@2@AEBV32@0@Z 
?insert_copy_before@xml_node@pugi@@QEAA?AV12@AEBV12@0@Z 
?insert_copy_before@xml_node@pugi@@QEAA?AVxml_attribute@2@AEBV32@0@Z 
?insert_move_after@xml_node@pugi@@QEAA?AV12@AEBV12@0@Z 
?insert_move_before@xml_node@pugi@@QEAA?AV12@AEBV12@0@Z 
?internal_object@xml_attribute@pugi@@QEBAPEAUxml_attribute_struct@2@XZ 
?internal_object@xml_node@pugi@@QEBAPEAUxml_node_struct@2@XZ 
?isAreaCheckEnabled@FindDegeneratesProcess@Assimp@@QEBA_NXZ 
?isNullLogger@DefaultLogger@Assimp@@SA_NXZ 
?isOpen@IOStreamBase@ODDLParser@@UEBA_NXZ 
?kill@DefaultLogger@Assimp@@SAXXZ 
?last_attribute@xml_node@pugi@@QEBA?AVxml_attribute@2@XZ 
?last_child@xml_node@pugi@@QEBA?AV12@XZ 
?load@xml_document@pugi@@QEAA?AUxml_parse_result@2@AEAV?$basic_istream@DU?$char_traits@D@std@@@std@@IW4xml_encoding@2@@Z 
?load@xml_document@pugi@@QEAA?AUxml_parse_result@2@AEAV?$basic_istream@_WU?$char_traits@_W@std@@@std@@I@Z 
?load@xml_document@pugi@@QEAA?AUxml_parse_result@2@PEBDI@Z 
?load_buffer@xml_document@pugi@@QEAA?AUxml_parse_result@2@PEBX_KIW4xml_encoding@2@@Z 
?load_buffer_inplace@xml_document@pugi@@QEAA?AUxml_parse_result@2@PEAX_KIW4xml_encoding@2@@Z 
?load_buffer_inplace_own@xml_document@pugi@@QEAA?AUxml_parse_result@2@PEAX_KIW4xml_encoding@2@@Z 
?load_file@xml_document@pugi@@QEAA?AUxml_parse_result@2@PEBDIW4xml_encoding@2@@Z 
?load_file@xml_document@pugi@@QEAA?AUxml_parse_result@2@PEB_WIW4xml_encoding@2@@Z 
?load_string@xml_document@pugi@@QEAA?AUxml_parse_result@2@PEBDI@Z 
?logToStream@OpenDDLParser@ODDLParser@@CAXPEAU_iobuf@@W4LogSeverity@2@AEBV?$basic_string@DU?$char_traits@D@std@@V?$allocator@D@2@@std@@@Z 
?mBytesPerPixel@Bitmap@Assimp@@1_KB 
?m_pLogger@DefaultLogger@Assimp@@0PEAVLogger@2@EA 
?name@xml_attribute@pugi@@QEBAPEBDXZ 
?name@xml_node@pugi@@QEBAPEBDXZ 
?name@xpath_variable@pugi@@QEBAPEBDXZ 
?needsNewMesh@ObjFileParser@Assimp@@IEAA_NAEBV?$basic_string@DU?$char_traits@D@std@@V?$allocator@D@2@@std@@@Z 
?next_attribute@xml_attribute@pugi@@QEBA?AV12@XZ 
?next_sibling@xml_node@pugi@@QEBA?AV12@PEBD@Z 
?next_sibling@xml_node@pugi@@QEBA?AV12@V?$basic_string_view@DU?$char_traits@D@std@@@std@@@Z 
?next_sibling@xml_node@pugi@@QEBA?AV12@XZ 
?node@xpath_node@pugi@@QEBA?AVxml_node@2@XZ 
?normalizeBuffer@OpenDDLParser@ODDLParser@@SAXAEAV?$vector@DV?$allocator@D@std@@@std@@@Z 
?normalizeVectorArray@GeometryUtils@Assimp@@SAXPEAV?$aiVector3t@M@@0_K@Z 
?offset_debug@xml_node@pugi@@QEBA_JXZ 
?open@IOStreamBase@ODDLParser@@UEAA_NAEBV?$basic_string@DU?$char_traits@D@std@@V?$allocator@D@2@@std@@@Z 
?parent@xml_node@pugi@@QEBA?AV12@XZ 
?parent@xpath_node@pugi@@QEBA?AVxml_node@2@XZ 
?parse@OpenDDLParser@ODDLParser@@QEAA_NXZ 
?parseBooleanLiteral@OpenDDLParser@ODDLParser@@SAPEADPEAD0PEAPEAVValue@2@@Z 
?parseDataArrayList@OpenDDLParser@ODDLParser@@SAPEADPEAD0W4ValueType@Value@2@PEAPEAUDataArrayList@2@@Z 
?parseDataList@OpenDDLParser@ODDLParser@@SAPEADPEAD0W4ValueType@Value@2@PEAPEAV42@AEA_KPEAPEAUReference@2@3@Z 
?parseFile@ObjFileParser@Assimp@@IEAAXAEAV?$IOStreamBuffer@D@2@@Z 
?parseFloatingLiteral@OpenDDLParser@ODDLParser@@SAPEADPEAD0PEAPEAVValue@2@W4ValueType@32@@Z 
?parseHeader@OpenDDLParser@ODDLParser@@QEAAPEADPEAD0@Z 
?parseHexaLiteral@OpenDDLParser@ODDLParser@@SAPEADPEAD0PEAPEAVValue@2@@Z 
?parseIdentifier@OpenDDLParser@ODDLParser@@SAPEADPEAD0PEAPEAUText@2@@Z 
?parseIntegerLiteral@OpenDDLParser@ODDLParser@@SAPEADPEAD0PEAPEAVValue@2@W4ValueType@32@@Z 
?parseName@OpenDDLParser@ODDLParser@@SAPEADPEAD0PEAPEAUName@2@@Z 
?parseNextNode@OpenDDLParser@ODDLParser@@QEAAPEADPEAD0@Z 
?parsePrimitiveDataType@OpenDDLParser@ODDLParser@@SAPEADPEAD0AEAW4ValueType@Value@2@AEA_K@Z 
?parseProperty@OpenDDLParser@ODDLParser@@SAPEADPEAD0PEAPEAUProperty@2@@Z 
?parseReference@OpenDDLParser@ODDLParser@@SAPEADPEAD0AEAV?$vector@PEAUName@ODDLParser@@V?$allocator@PEAUName@ODDLParser@@@std@@@std@@@Z 
?parseStringLiteral@OpenDDLParser@ODDLParser@@SAPEADPEAD0PEAPEAVValue@2@@Z 
?parseStructure@OpenDDLParser@ODDLParser@@QEAAPEADPEAD0@Z 
?parseStructureBody@OpenDDLParser@ODDLParser@@QEAAPEADPEAD0AEA_N@Z 
?path@xml_node@pugi@@QEBA?AV?$basic_string@DU?$char_traits@D@std@@V?$allocator@D@2@@std@@D@Z 
?popNode@OpenDDLParser@ODDLParser@@QEAAPEAVDDLNode@2@XZ 
?prepend_attribute@xml_node@pugi@@QEAA?AVxml_attribute@2@PEBD@Z 
?prepend_attribute@xml_node@pugi@@QEAA?AVxml_attribute@2@V?$basic_string_view@DU?$char_traits@D@std@@@std@@@Z 
?prepend_child@xml_node@pugi@@QEAA?AV12@PEBD@Z 
?prepend_child@xml_node@pugi@@QEAA?AV12@V?$basic_string_view@DU?$char_traits@D@std@@@std@@@Z 
?prepend_child@xml_node@pugi@@QEAA?AV12@W4xml_node_type@2@@Z 
?prepend_copy@xml_node@pugi@@QEAA?AV12@AEBV12@@Z 
?prepend_copy@xml_node@pugi@@QEAA?AVxml_attribute@2@AEBV32@@Z 
?prepend_move@xml_node@pugi@@QEAA?AV12@AEBV12@@Z 
?previous_attribute@xml_attribute@pugi@@QEBA?AV12@XZ 
?previous_sibling@xml_node@pugi@@QEBA?AV12@PEBD@Z 
?previous_sibling@xml_node@pugi@@QEBA?AV12@V?$basic_string_view@DU?$char_traits@D@std@@@std@@@Z 
?previous_sibling@xml_node@pugi@@QEBA?AV12@XZ 
?print@xml_node@pugi@@QEBAXAEAV?$basic_ostream@DU?$char_traits@D@std@@@std@@PEBDIW4xml_encoding@2@I@Z 
?print@xml_node@pugi@@QEBAXAEAV?$basic_ostream@_WU?$char_traits@_W@std@@@std@@PEBDII@Z 
?print@xml_node@pugi@@QEBAXAEAVxml_writer@2@PEBDIW4xml_encoding@2@I@Z 
?pushNode@OpenDDLParser@ODDLParser@@QEAAXPEAVDDLNode@2@@Z 
?read@IOStreamBase@ODDLParser@@UEAA_K_KAEAV?$basic_string@DU?$char_traits@D@std@@V?$allocator@D@2@@std@@@Z 
?releaseNodes@DDLNode@ODDLParser@@CAXXZ 
?releasePrimData@ValueAllocator@ODDLParser@@SAXPEAPEAVValue@2@@Z 
?remove_attribute@xml_node@pugi@@QEAA_NAEBVxml_attribute@2@@Z 
?remove_attribute@xml_node@pugi@@QEAA_NPEBD@Z 
?remove_attribute@xml_node@pugi@@QEAA_NV?$basic_string_view@DU?$char_traits@D@std@@@std@@@Z 
?remove_attributes@xml_node@pugi@@QEAA_NXZ 
?remove_child@xml_node@pugi@@QEAA_NAEBV12@@Z 
?remove_child@xml_node@pugi@@QEAA_NPEBD@Z 
?remove_child@xml_node@pugi@@QEAA_NV?$basic_string_view@DU?$char_traits@D@std@@@std@@@Z 
?remove_children@xml_node@pugi@@QEAA_NXZ 
?reportErrorTokenInFace@ObjFileParser@Assimp@@IEAAXXZ 
?reset@xml_document@pugi@@QEAAXAEBV12@@Z 
?reset@xml_document@pugi@@QEAAXXZ 
?result@xpath_exception@pugi@@QEBAAEBUxpath_parse_result@2@XZ 
?result@xpath_query@pugi@@QEBAAEBUxpath_parse_result@2@XZ 
?return_type@xpath_query@pugi@@QEBA?AW4xpath_value_type@2@XZ 
?root@xml_node@pugi@@QEBA?AV12@XZ 
?s_allocatedNodes@DDLNode@ODDLParser@@0V?$vector@PEAVDDLNode@ODDLParser@@V?$allocator@PEAVDDLNode@ODDLParser@@@std@@@std@@A 
?s_pNullLogger@DefaultLogger@Assimp@@0VNullLogger@2@A 
?save@xml_document@pugi@@QEBAXAEAV?$basic_ostream@DU?$char_traits@D@std@@@std@@PEBDIW4xml_encoding@2@@Z 
?save@xml_document@pugi@@QEBAXAEAV?$basic_ostream@_WU?$char_traits@_W@std@@@std@@PEBDI@Z 
?save@xml_document@pugi@@QEBAXAEAVxml_writer@2@PEBDIW4xml_encoding@2@@Z 
?save_file@xml_document@pugi@@QEBA_NPEBD0IW4xml_encoding@2@@Z 
?save_file@xml_document@pugi@@QEBA_NPEB_WPEBDIW4xml_encoding@2@@Z 
?select_node@xml_node@pugi@@QEBA?AVxpath_node@2@AEBVxpath_query@2@@Z 
?select_node@xml_node@pugi@@QEBA?AVxpath_node@2@PEBDPEAVxpath_variable_set@2@@Z 
?select_nodes@xml_node@pugi@@QEBA?AVxpath_node_set@2@AEBVxpath_query@2@@Z 
?select_nodes@xml_node@pugi@@QEBA?AVxpath_node_set@2@PEBDPEAVxpath_variable_set@2@@Z 
?select_single_node@xml_node@pugi@@QEBA?AVxpath_node@2@AEBVxpath_query@2@@Z 
?select_single_node@xml_node@pugi@@QEBA?AVxpath_node@2@PEBDPEAVxpath_variable_set@2@@Z 
?set@DefaultLogger@Assimp@@SAXPEAVLogger@2@@Z 
?set@Point@p2t@@QEAAXNN@Z 
?set@Text@ODDLParser@@QEAAXPEBD_K@Z 
?set@xml_text@pugi@@QEAA_NH@Z 
?set@xml_text@pugi@@QEAA_NI@Z 
?set@xml_text@pugi@@QEAA_NJ@Z 
?set@xml_text@pugi@@QEAA_NK@Z 
?set@xml_text@pugi@@QEAA_NM@Z 
?set@xml_text@pugi@@QEAA_NMH@Z 
?set@xml_text@pugi@@QEAA_NN@Z 
?set@xml_text@pugi@@QEAA_NNH@Z 
?set@xml_text@pugi@@QEAA_NPEBD@Z 
?set@xml_text@pugi@@QEAA_NPEBD_K@Z 
?set@xml_text@pugi@@QEAA_NV?$basic_string_view@DU?$char_traits@D@std@@@std@@@Z 
?set@xml_text@pugi@@QEAA_N_J@Z 
?set@xml_text@pugi@@QEAA_N_K@Z 
?set@xml_text@pugi@@QEAA_N_N@Z 
?set@xpath_variable@pugi@@QEAA_NAEBVxpath_node_set@2@@Z 
?set@xpath_variable@pugi@@QEAA_NN@Z 
?set@xpath_variable@pugi@@QEAA_NPEBD@Z 
?set@xpath_variable@pugi@@QEAA_N_N@Z 
?set@xpath_variable_set@pugi@@QEAA_NPEBD0@Z 
?set@xpath_variable_set@pugi@@QEAA_NPEBDAEBVxpath_node_set@2@@Z 
?set@xpath_variable_set@pugi@@QEAA_NPEBDN@Z 
?set@xpath_variable_set@pugi@@QEAA_NPEBD_N@Z 
?setAiAssertHandler@Assimp@@YAXP6AXPEBD0H@Z@Z 
?setBool@Value@ODDLParser@@QEAAX_N@Z 
?setBuffer@ObjFileParser@Assimp@@QEAAXAEAV?$vector@DV?$allocator@D@std@@@std@@@Z 
?setBuffer@OpenDDLParser@ODDLParser@@QEAAXAEBV?$vector@DV?$allocator@D@std@@@std@@@Z 
?setBuffer@OpenDDLParser@ODDLParser@@QEAAXPEBD_K@Z 
?setDataArrayList@DDLNode@ODDLParser@@QEAAXPEAUDataArrayList@2@@Z 
?setDouble@Value@ODDLParser@@QEAAXN@Z 
?setFloat@Value@ODDLParser@@QEAAXM@Z 
?setInt16@Value@ODDLParser@@QEAAXF@Z 
?setInt32@Value@ODDLParser@@QEAAXH@Z 
?setInt64@Value@ODDLParser@@QEAAX_J@Z 
?setInt8@Value@ODDLParser@@QEAAXC@Z 
?setLogCallback@OpenDDLParser@ODDLParser@@QEAAXV?$function@$$A6AXW4LogSeverity@ODDLParser@@AEBV?$basic_string@DU?$char_traits@D@std@@V?$allocator@D@2@@std@@@Z@std@@@Z 
?setLogSeverity@Logger@Assimp@@QEAAXW4LogSeverity@12@@Z 
?setName@DDLNode@ODDLParser@@QEAAXAEBV?$basic_string@DU?$char_traits@D@std@@V?$allocator@D@2@@std@@@Z 
?setNext@Value@ODDLParser@@QEAAXPEAV12@@Z 
?setProperties@DDLNode@ODDLParser@@QEAAXPEAUProperty@2@@Z 
?setRef@Value@ODDLParser@@QEAAXPEAUReference@2@@Z 
?setReferences@DDLNode@ODDLParser@@QEAAXPEAUReference@2@@Z 
?setScale@ScaleProcess@Assimp@@QEAAXM@Z 
?setString@Value@ODDLParser@@QEAAXAEBV?$basic_string@DU?$char_traits@D@std@@V?$allocator@D@2@@std@@@Z 
?setType@DDLNode@ODDLParser@@QEAAXAEBV?$basic_string@DU?$char_traits@D@std@@V?$allocator@D@2@@std@@@Z 
?setUnsignedInt16@Value@ODDLParser@@QEAAXG@Z 
?setUnsignedInt32@Value@ODDLParser@@QEAAXI@Z 
?setUnsignedInt64@Value@ODDLParser@@QEAAX_K@Z 
?setUnsignedInt8@Value@ODDLParser@@QEAAXE@Z 
?setValidation@BatchLoader@Assimp@@QEAAX_N@Z 
?setValue@DDLNode@ODDLParser@@QEAAXPEAVValue@2@@Z 
?set_memory_management_functions@pugi@@YAXP6APEAX_K@ZP6AXPEAX@Z@Z 
?set_name@xml_attribute@pugi@@QEAA_NPEBD@Z 
?set_name@xml_attribute@pugi@@QEAA_NPEBD_K@Z 
?set_name@xml_attribute@pugi@@QEAA_NV?$basic_string_view@DU?$char_traits@D@std@@@std@@@Z 
?set_name@xml_node@pugi@@QEAA_NPEBD@Z 
?set_name@xml_node@pugi@@QEAA_NPEBD_K@Z 
?set_name@xml_node@pugi@@QEAA_NV?$basic_string_view@DU?$char_traits@D@std@@@std@@@Z 
?set_value@xml_attribute@pugi@@QEAA_NH@Z 
?set_value@xml_attribute@pugi@@QEAA_NI@Z 
?set_value@xml_attribute@pugi@@QEAA_NJ@Z 
?set_value@xml_attribute@pugi@@QEAA_NK@Z 
?set_value@xml_attribute@pugi@@QEAA_NM@Z 
?set_value@xml_attribute@pugi@@QEAA_NMH@Z 
?set_value@xml_attribute@pugi@@QEAA_NN@Z 
?set_value@xml_attribute@pugi@@QEAA_NNH@Z 
?set_value@xml_attribute@pugi@@QEAA_NPEBD@Z 
?set_value@xml_attribute@pugi@@QEAA_NPEBD_K@Z 
?set_value@xml_attribute@pugi@@QEAA_NV?$basic_string_view@DU?$char_traits@D@std@@@std@@@Z 
?set_value@xml_attribute@pugi@@QEAA_N_J@Z 
?set_value@xml_attribute@pugi@@QEAA_N_K@Z 
?set_value@xml_attribute@pugi@@QEAA_N_N@Z 
?set_value@xml_node@pugi@@QEAA_NPEBD@Z 
?set_value@xml_node@pugi@@QEAA_NPEBD_K@Z 
?set_value@xml_node@pugi@@QEAA_NV?$basic_string_view@DU?$char_traits@D@std@@@std@@@Z 
?set_zero@Point@p2t@@QEAAXXZ 
?size@DataArrayList@ODDLParser@@QEAA_KXZ 
?size@Value@ODDLParser@@QEBA_KXZ 
?size@xpath_node_set@pugi@@QEBA_KXZ 
?sizeInBytes@Reference@ODDLParser@@QEAA_KXZ 
?sort@xpath_node_set@pugi@@QEAAX_N@Z 
?text@xml_node@pugi@@QEBA?AVxml_text@2@XZ 
?top@OpenDDLParser@ODDLParser@@QEAAPEAVDDLNode@2@XZ 
?traverse@xml_node@pugi@@QEAA_NAEAVxml_tree_walker@2@@Z 
?traverseNodes@ScaleProcess@Assimp@@AEAAXPEAUaiNode@@I@Z 
?tryToFindValidPath@EmbedTexturesProcess@Assimp@@AEBA?AV?$basic_string@DU?$char_traits@D@std@@V?$allocator@D@2@@std@@AEBV34@@Z 
?type@xml_node@pugi@@QEBA?AW4xml_node_type@2@XZ 
?type@xpath_node_set@pugi@@QEBA?AW4type_t@12@XZ 
?type@xpath_variable@pugi@@QEBA?AW4xpath_value_type@2@XZ 
?validate@OpenDDLParser@ODDLParser@@QEAA_NXZ 
?value@xml_attribute@pugi@@QEBAPEBDXZ 
?value@xml_node@pugi@@QEBAPEBDXZ 
?verboseDebug@Logger@Assimp@@QEAAXPEBD@Z 
?warn@Logger@Assimp@@QEAAXPEBD@Z 
?what@xpath_exception@pugi@@UEBAPEBDXZ 
?write@IOStreamBase@ODDLParser@@UEAA_KAEBV?$basic_string@DU?$char_traits@D@std@@V?$allocator@D@2@@std@@@Z 
?write@xml_writer_file@pugi@@UEAAXPEBX_K@Z 
?write@xml_writer_stream@pugi@@UEAAXPEBX_K@Z 
?writeNode@OpenDDLExport@ODDLParser@@IEAA_NPEAVDDLNode@2@AEAV?$basic_string@DU?$char_traits@D@std@@V?$allocator@D@2@@std@@@Z 
?writeNodeHeader@OpenDDLExport@ODDLParser@@IEAA_NPEAVDDLNode@2@AEAV?$basic_string@DU?$char_traits@D@std@@V?$allocator@D@2@@std@@@Z 
?writeProperties@OpenDDLExport@ODDLParser@@IEAA_NPEAVDDLNode@2@AEAV?$basic_string@DU?$char_traits@D@std@@V?$allocator@D@2@@std@@@Z 
?writeToStream@OpenDDLExport@ODDLParser@@QEAA_NAEBV?$basic_string@DU?$char_traits@D@std@@V?$allocator@D@2@@std@@@Z 
?writeValue@OpenDDLExport@ODDLParser@@IEAA_NPEAVValue@2@AEAV?$basic_string@DU?$char_traits@D@std@@V?$allocator@D@2@@std@@@Z 
?writeValueArray@OpenDDLExport@ODDLParser@@IEAA_NPEAUDataArrayList@2@AEAV?$basic_string@DU?$char_traits@D@std@@V?$allocator@D@2@@std@@@Z 
?writeValueType@OpenDDLExport@ODDLParser@@IEAA_NW4ValueType@Value@2@_KAEAV?$basic_string@DU?$char_traits@D@std@@V?$allocator@D@2@@std@@@Z 
aiApplyPostProcessing 
aiAttachLogStream 
aiCopyScene 
aiCreatePropertyStore 
aiCreateQuaternionFromMatrix 
aiDecomposeMatrix 
aiDetachAllLogStreams 
aiDetachLogStream 
aiEnableVerboseLogging 
aiExportScene 
aiExportSceneEx 
aiExportSceneToBlob 
aiFreeScene 
aiGetBranchName 
aiGetCompileFlags 
aiGetEmbeddedTexture 
aiGetErrorString 
aiGetExportFormatCount 
aiGetExportFormatDescription 
aiGetExtensionList 
aiGetImportFormatCount 
aiGetImportFormatDescription 
aiGetImporterDesc 
aiGetLegalString 
aiGetMaterialColor 
aiGetMaterialFloatArray 
aiGetMaterialIntegerArray 
aiGetMaterialProperty 
aiGetMaterialString 
aiGetMaterialTexture 
aiGetMaterialTextureCount 
aiGetMaterialUVTransform 
aiGetMemoryRequirements 
aiGetPredefinedLogStream 
aiGetVersionMajor 
aiGetVersionMinor 
aiGetVersionPatch 
aiGetVersionRevision 
aiIdentityMatrix3 
aiIdentityMatrix4 
aiImportFile 
aiImportFileEx 
aiImportFileExWithProperties 
aiImportFileFromMemory 
aiImportFileFromMemoryWithProperties 
aiIsExtensionSupported 
aiMatrix3AreEqual 
aiMatrix3AreEqualEpsilon 
aiMatrix3Determinant 
aiMatrix3FromMatrix4 
aiMatrix3FromQuaternion 
aiMatrix3FromRotationAroundAxis 
aiMatrix3FromTo 
aiMatrix3Inverse 
aiMatrix3RotationZ 
aiMatrix3Translation 
aiMatrix4Add 
aiMatrix4AreEqual 
aiMatrix4AreEqualEpsilon 
aiMatrix4DecomposeIntoScalingAxisAnglePosition 
aiMatrix4DecomposeIntoScalingEulerAnglesPosition 
aiMatrix4DecomposeNoScaling 
aiMatrix4Determinant 
aiMatrix4FromEulerAngles 
aiMatrix4FromMatrix3 
aiMatrix4FromRotationAroundAxis 
aiMatrix4FromScalingQuaternionPosition 
aiMatrix4FromTo 
aiMatrix4Inverse 
aiMatrix4IsIdentity 
aiMatrix4RotationX 
aiMatrix4RotationY 
aiMatrix4RotationZ 
aiMatrix4Scaling 
aiMatrix4Translation 
aiMultiplyMatrix3 
aiMultiplyMatrix4 
aiQuaternionAreEqual 
aiQuaternionAreEqualEpsilon 
aiQuaternionConjugate 
aiQuaternionFromAxisAngle 
aiQuaternionFromEulerAngles 
aiQuaternionFromNormalizedQuaternion 
aiQuaternionInterpolate 
aiQuaternionMultiply 
aiQuaternionNormalize 
aiReleaseExportBlob 
aiReleaseExportFormatDescription 
aiReleaseImport 
aiReleasePropertyStore 
aiSetImportPropertyFloat 
aiSetImportPropertyInteger 
aiSetImportPropertyMatrix 
aiSetImportPropertyString 
aiTextureTypeToString 
aiTransformVecByMatrix3 
aiTransformVecByMatrix4 
aiTransposeMatrix3 
aiTransposeMatrix4 
aiVector2Add 
aiVector2AreEqual 
aiVector2AreEqualEpsilon 
aiVector2DivideByScalar 
aiVector2DivideByVector 
aiVector2DotProduct 
aiVector2Length 
aiVector2Negate 
aiVector2Normalize 
aiVector2Scale 
aiVector2SquareLength 
aiVector2Subtract 
aiVector2SymMul 
aiVector3Add 
aiVector3AreEqual 
aiVector3AreEqualEpsilon 
aiVector3CrossProduct 
aiVector3DivideByScalar 
aiVector3DivideByVector 
aiVector3DotProduct 
aiVector3Length 
aiVector3LessThan 
aiVector3Negate 
aiVector3Normalize 
aiVector3NormalizeSafe 
aiVector3RotateByQuaternion 
aiVector3Scale 
aiVector3SquareLength 
aiVector3Subtract 
aiVector3SymMul 
